
========================================================================

** ELF Header Information

    File Name: Objects\RTOS_debug.axf

    Machine class: ELFCLASS32 (32-bit)
    Data encoding: ELFDATA2LSB (Little endian)
    Header version: EV_CURRENT (Current version)
    Operating System ABI: none
    ABI Version: 0
    File Type: ET_EXEC (Executable) (2)
    Machine: EM_ARM (ARM)

    Image Entry point: 0x00000d39
    Flags: EF_ARM_HASENTRY (0x05000002)

    ARM ELF revision: 5 (ABI version 2)

    Conforms to Base float procedure-call standard

    Built with
    Component: Arm Compiler for Embedded 6.24 Tool: armlink [5f371500]

    Header size: 52 bytes (0x34)
    Program header entry size: 32 bytes (0x20)
    Section header entry size: 40 bytes (0x28)

    Program header entries: 21
    Section header entries: 170

    Program header offset: 715820 (0x000aec2c)
    Section header offset: 716492 (0x000aeecc)

    Section header string table index: 169

========================================================================

** Program header #0 (PT_LOAD) [PF_W + PF_R]
    Size : 5520 bytes (136 bytes in file)
    Virtual address: 0x00000000 (Alignment 8)


====================================

** Program header #1 (PT_LOAD) [PF_X + PF_W + PF_R + PF_ARM_ENTRY]
    Size : 18428 bytes
    Virtual address: 0x00000088 (Alignment 4)


====================================

** Program header #2 (PT_LOAD) [PF_W + PF_R]
    Size : 4 bytes
    Virtual address: 0x0100a100 (Alignment 4)


====================================

** Program header #3 (PT_LOAD) [PF_W + PF_R]
    Size : 0 bytes
    Virtual address: 0x0100a110 (Alignment 4)


====================================

** Program header #4 (PT_LOAD) [PF_W + PF_R]
    Size : 0 bytes
    Virtual address: 0x0100a180 (Alignment 4)


====================================

** Program header #5 (PT_LOAD) [PF_W + PF_R]
    Size : 0 bytes
    Virtual address: 0x0100a190 (Alignment 4)


====================================

** Program header #6 (PT_LOAD) [PF_W + PF_R]
    Size : 0 bytes
    Virtual address: 0x0100a1c0 (Alignment 4)


====================================

** Program header #7 (PT_LOAD) [PF_W + PF_R]
    Size : 0 bytes
    Virtual address: 0x0100a1e0 (Alignment 4)


====================================

** Program header #8 (PT_LOAD) [PF_W + PF_R]
    Size : 4 bytes
    Virtual address: 0x0100a200 (Alignment 4)


====================================

** Program header #9 (PT_LOAD) [PF_W + PF_R]
    Size : 0 bytes
    Virtual address: 0x0100a210 (Alignment 4)


====================================

** Program header #10 (PT_LOAD) [PF_W + PF_R]
    Size : 0 bytes
    Virtual address: 0x0100a240 (Alignment 4)


====================================

** Program header #11 (PT_LOAD) [PF_W + PF_R]
    Size : 0 bytes
    Virtual address: 0x0100a260 (Alignment 4)


====================================

** Program header #12 (PT_LOAD) [PF_W + PF_R]
    Size : 4 bytes
    Virtual address: 0x0100a280 (Alignment 4)


====================================

** Program header #13 (PT_LOAD) [PF_W + PF_R]
    Size : 0 bytes
    Virtual address: 0x0100a290 (Alignment 4)


====================================

** Program header #14 (PT_LOAD) [PF_W + PF_R]
    Size : 0 bytes
    Virtual address: 0x0100a2c0 (Alignment 4)


====================================

** Program header #15 (PT_LOAD) [PF_W + PF_R]
    Size : 0 bytes
    Virtual address: 0x08000000 (Alignment 4)


====================================

** Program header #16 (PT_LOAD) [PF_W + PF_R]
    Size : 0 bytes
    Virtual address: 0x08000000 (Alignment 4)


====================================

** Program header #17 (PT_LOAD) [PF_W + PF_R]
    Size : 0 bytes
    Virtual address: 0x60000000 (Alignment 4)


====================================

** Program header #18 (PT_LOAD) [PF_W + PF_R]
    Size : 0 bytes
    Virtual address: 0x60000000 (Alignment 4)


====================================

** Program header #19 (PT_LOAD) [PF_W + PF_R]
    Size : 0 bytes
    Virtual address: 0x70000000 (Alignment 4)


====================================

** Program header #20 (PT_LOAD) [PF_W + PF_R]
    Size : 0 bytes
    Virtual address: 0x70000000 (Alignment 4)


========================================================================

** Section #1 '__QSPI_FLASH_start' (SHT_NOBITS) [SHF_ALLOC + SHF_WRITE]
    Size   : 0 bytes (alignment 4)
    Address: 0x60000000


** Section #2 '__QSPI_FLASH_init' (SHT_NOBITS) [SHF_ALLOC + SHF_WRITE]
    Size   : 0 bytes (alignment 4)
    Address: 0x60000000


** Section #3 '__ddsc_QSPI_FLASH_START' (SHT_NOBITS) [SHF_ALLOC + SHF_WRITE]
    Size   : 0 bytes (alignment 4)
    Address: 0x60000000


** Section #4 '.qspi_flash.startof' (SHT_NOBITS) [SHF_ALLOC + SHF_WRITE]
    Size   : 0 bytes (alignment 4)
    Address: 0x60000000


** Section #5 '__OSPI0_CS0_start' (SHT_NOBITS) [SHF_ALLOC + SHF_WRITE]
    Size   : 0 bytes (alignment 4)
    Address: 0x68000000


** Section #6 '__ddsc_OSPI0_CS0_START' (SHT_NOBITS) [SHF_ALLOC + SHF_WRITE]
    Size   : 0 bytes (alignment 4)
    Address: 0x68000000


** Section #7 '.ospi0_cs0.startof' (SHT_NOBITS) [SHF_ALLOC + SHF_WRITE]
    Size   : 0 bytes (alignment 4)
    Address: 0x68000000


** Section #8 '__RAM_start' (SHT_NOBITS) [SHF_ALLOC + SHF_WRITE]
    Size   : 0 bytes (alignment 4)
    Address: 0x20000000


** Section #9 '__ddsc_RAM_START' (SHT_NOBITS) [SHF_ALLOC + SHF_WRITE]
    Size   : 0 bytes (alignment 4)
    Address: 0x20000000


** Section #10 '.ram.startof' (SHT_NOBITS) [SHF_ALLOC + SHF_WRITE]
    Size   : 0 bytes (alignment 4)
    Address: 0x20000000


** Section #11 '__ddsc_QSPI_FLASH_END' (SHT_NOBITS) [SHF_ALLOC + SHF_WRITE]
    Size   : 0 bytes (alignment 4)
    Address: 0x60000000


** Section #12 '.qspi_flash.endof' (SHT_NOBITS) [SHF_ALLOC + SHF_WRITE]
    Size   : 0 bytes (alignment 4)
    Address: 0x60000000


** Section #13 '__QSPI_FLASH_end' (SHT_NOBITS) [SHF_ALLOC + SHF_WRITE]
    Size   : 0 bytes (alignment 4)
    Address: 0x60000000


** Section #14 '__OSPI0_CS1_start' (SHT_NOBITS) [SHF_ALLOC + SHF_WRITE]
    Size   : 0 bytes (alignment 4)
    Address: 0x70000000


** Section #15 '__OSPI0_CS1_init' (SHT_NOBITS) [SHF_ALLOC + SHF_WRITE]
    Size   : 0 bytes (alignment 4)
    Address: 0x70000000


** Section #16 '__ddsc_OSPI0_CS1_START' (SHT_NOBITS) [SHF_ALLOC + SHF_WRITE]
    Size   : 0 bytes (alignment 4)
    Address: 0x70000000


** Section #17 '.ospi0_cs1.startof' (SHT_NOBITS) [SHF_ALLOC + SHF_WRITE]
    Size   : 0 bytes (alignment 4)
    Address: 0x70000000


** Section #18 '__ospi0_cs0_from_qspi_flash_jump' (SHT_NOBITS) [SHF_ALLOC + SHF_WRITE]
    Size   : 0 bytes (alignment 4)
    Address: 0x68000000


** Section #19 '__ram_from_qspi_flash_jump' (SHT_NOBITS) [SHF_ALLOC + SHF_WRITE]
    Size   : 0 bytes (alignment 4)
    Address: 0x20000000


** Section #20 '__ddsc_OSPI0_CS1_END' (SHT_NOBITS) [SHF_ALLOC + SHF_WRITE]
    Size   : 0 bytes (alignment 4)
    Address: 0x70000000


** Section #21 '.ospi0_cs1.endof' (SHT_NOBITS) [SHF_ALLOC + SHF_WRITE]
    Size   : 0 bytes (alignment 4)
    Address: 0x70000000


** Section #22 '__OSPI0_CS1_end' (SHT_NOBITS) [SHF_ALLOC + SHF_WRITE]
    Size   : 0 bytes (alignment 4)
    Address: 0x70000000


** Section #23 '__DATA_FLASH_start' (SHT_NOBITS) [SHF_ALLOC + SHF_WRITE]
    Size   : 0 bytes (alignment 4)
    Address: 0x08000000


** Section #24 '__DATA_FLASH_init' (SHT_NOBITS) [SHF_ALLOC + SHF_WRITE]
    Size   : 0 bytes (alignment 4)
    Address: 0x08000000


** Section #25 '__ddsc_DATA_FLASH_START' (SHT_NOBITS) [SHF_ALLOC + SHF_WRITE]
    Size   : 0 bytes (alignment 4)
    Address: 0x08000000


** Section #26 '.data_flash.startof' (SHT_NOBITS) [SHF_ALLOC + SHF_WRITE]
    Size   : 0 bytes (alignment 4)
    Address: 0x08000000


** Section #27 '__ospi0_cs0_from_ospi0_cs1_jump' (SHT_NOBITS) [SHF_ALLOC + SHF_WRITE]
    Size   : 0 bytes (alignment 4)
    Address: 0x68000000


** Section #28 '__ram_from_ospi0_cs1_jump' (SHT_NOBITS) [SHF_ALLOC + SHF_WRITE]
    Size   : 0 bytes (alignment 4)
    Address: 0x20000000


** Section #29 '__ddsc_DATA_FLASH_END' (SHT_NOBITS) [SHF_ALLOC + SHF_WRITE]
    Size   : 0 bytes (alignment 4)
    Address: 0x08000000


** Section #30 '.data_flash.endof' (SHT_NOBITS) [SHF_ALLOC + SHF_WRITE]
    Size   : 0 bytes (alignment 4)
    Address: 0x08000000


** Section #31 '__DATA_FLASH_end' (SHT_NOBITS) [SHF_ALLOC + SHF_WRITE]
    Size   : 0 bytes (alignment 4)
    Address: 0x08000000


** Section #32 '__FLASH_start' (SHT_NOBITS) [SHF_ALLOC + SHF_WRITE]
    Size   : 0 bytes (alignment 4)
    Address: 0x00000000


** Section #33 '__FLASH_init' (SHT_NOBITS) [SHF_ALLOC + SHF_WRITE]
    Size   : 0 bytes (alignment 4)
    Address: 0x00000000


** Section #34 '__ddsc_FLASH_START' (SHT_NOBITS) [SHF_ALLOC + SHF_WRITE]
    Size   : 0 bytes (alignment 4)
    Address: 0x00000000


** Section #35 '.flash.startof' (SHT_NOBITS) [SHF_ALLOC + SHF_WRITE]
    Size   : 0 bytes (alignment 4)
    Address: 0x00000000


** Section #36 '_VECTORS' (SHT_NOBITS) [SHF_ALLOC + SHF_WRITE]
    Size   : 0 bytes (alignment 4)
    Address: 0x00000000


** Section #37 '__flash_vectors' (SHT_PROGBITS) [SHF_ALLOC]
    Size   : 132 bytes (alignment 4)
    Address: 0x00000000


** Section #38 '__ospi0_cs0_from_data_flash_jump' (SHT_NOBITS) [SHF_ALLOC + SHF_WRITE]
    Size   : 0 bytes (alignment 4)
    Address: 0x68000000


** Section #39 '__ospi0_cs0_zero_nocache_pad' (SHT_NOBITS) [SHF_ALLOC + SHF_WRITE]
    Size   : 0 bytes (alignment 4)
    Address: 0x68000000


** Section #40 '__ddsc_OSPI0_CS0_END' (SHT_NOBITS) [SHF_ALLOC + SHF_WRITE]
    Size   : 0 bytes (alignment 4)
    Address: 0x68000000


** Section #41 '.ospi0_cs0.endof' (SHT_NOBITS) [SHF_ALLOC + SHF_WRITE]
    Size   : 0 bytes (alignment 4)
    Address: 0x68000000


** Section #42 '__OSPI0_CS0_end' (SHT_NOBITS) [SHF_ALLOC + SHF_WRITE]
    Size   : 0 bytes (alignment 4)
    Address: 0x68000000


** Section #43 '__ram_from_data_flash_jump' (SHT_NOBITS) [SHF_ALLOC + SHF_WRITE]
    Size   : 0 bytes (alignment 4)
    Address: 0x20000000


** Section #44 '__ram_from_flash' (SHT_PROGBITS) [SHF_ALLOC + SHF_WRITE]
    Size   : 4 bytes (alignment 4)
    Address: 0x20000000


** Section #45 '__ram_zero_nocache_pad' (SHT_NOBITS) [SHF_ALLOC + SHF_WRITE]
    Size   : 0 bytes (alignment 4)
    Address: 0x20000020


** Section #46 'ARM_LIB_STACK' (SHT_NOBITS) [SHF_ALLOC + SHF_WRITE]
    Size   : 0 bytes (alignment 4)
    Address: 0x20000020


** Section #47 'ARM_LIB_HEAP' (SHT_NOBITS) [SHF_ALLOC + SHF_WRITE]
    Size   : 0 bytes (alignment 8)
    Address: 0x20000020


** Section #48 '__post_heap' (SHT_NOBITS) [SHF_ALLOC + SHF_WRITE]
    Size   : 1052 bytes (alignment 8)
    Address: 0x20000020


** Section #49 '__ram_zero' (SHT_NOBITS) [SHF_ALLOC + SHF_WRITE]
    Size   : 2284 bytes (alignment 4)
    Address: 0x2000043c


** Section #50 '__ram_thread_stack' (SHT_NOBITS) [SHF_ALLOC + SHF_WRITE]
    Size   : 2048 bytes (alignment 8)
    Address: 0x20000d28


** Section #51 '__ddsc_RAM_END' (SHT_NOBITS) [SHF_ALLOC + SHF_WRITE]
    Size   : 0 bytes (alignment 4)
    Address: 0x20001800


** Section #52 '.ram.endof' (SHT_NOBITS) [SHF_ALLOC + SHF_WRITE]
    Size   : 0 bytes (alignment 4)
    Address: 0x20001800


** Section #53 '__ddsc_RAM_NSC' (SHT_NOBITS) [SHF_ALLOC + SHF_WRITE]
    Size   : 0 bytes (alignment 4)
    Address: 0x20001800


** Section #54 '.ram.flat_nsc' (SHT_NOBITS) [SHF_ALLOC + SHF_WRITE]
    Size   : 0 bytes (alignment 4)
    Address: 0x20001800


** Section #55 '__RAM_end' (SHT_NOBITS) [SHF_ALLOC + SHF_WRITE]
    Size   : 0 bytes (alignment 4)
    Address: 0x20001800


** Section #56 '__flash_readonly' (SHT_PROGBITS) [SHF_ALLOC + SHF_EXECINSTR]
    Size   : 18428 bytes (alignment 4)
    Address: 0x00000088

    $t
    .text
    __aeabi_memcpy
    __aeabi_memcpy4
    __aeabi_memcpy8
        0x00000088:    ea400301    @...    ORR      r3,r0,r1
        0x0000008c:    079b        ..      LSLS     r3,r3,#30
        0x0000008e:    d003        ..      BEQ      0x98 ; __aeabi_memcpy + 16
        0x00000090:    e009        ..      B        0xa6 ; __aeabi_memcpy + 30
        0x00000092:    c908        ..      LDM      r1!,{r3}
        0x00000094:    1f12        ..      SUBS     r2,r2,#4
        0x00000096:    c008        ..      STM      r0!,{r3}
        0x00000098:    2a04        .*      CMP      r2,#4
        0x0000009a:    d2fa        ..      BCS      0x92 ; __aeabi_memcpy + 10
        0x0000009c:    e003        ..      B        0xa6 ; __aeabi_memcpy + 30
        0x0000009e:    f8113b01    ...;    LDRB     r3,[r1],#1
        0x000000a2:    f8003b01    ...;    STRB     r3,[r0],#1
        0x000000a6:    1e52        R.      SUBS     r2,r2,#1
        0x000000a8:    d2f9        ..      BCS      0x9e ; __aeabi_memcpy + 22
        0x000000aa:    4770        pG      BX       lr
    .text
    __aeabi_memset
    __aeabi_memset4
    __aeabi_memset8
        0x000000ac:    b2d2        ..      UXTB     r2,r2
        0x000000ae:    e001        ..      B        0xb4 ; __aeabi_memset + 8
        0x000000b0:    f8002b01    ...+    STRB     r2,[r0],#1
        0x000000b4:    1e49        I.      SUBS     r1,r1,#1
        0x000000b6:    d2fb        ..      BCS      0xb0 ; __aeabi_memset + 4
        0x000000b8:    4770        pG      BX       lr
    __aeabi_memclr
    __aeabi_memclr4
    __aeabi_memclr8
        0x000000ba:    2200        ."      MOVS     r2,#0
        0x000000bc:    e7f6        ..      B        __aeabi_memset ; 0xac
    _memset$wrapper
        0x000000be:    b510        ..      PUSH     {r4,lr}
        0x000000c0:    4613        .F      MOV      r3,r2
        0x000000c2:    460a        .F      MOV      r2,r1
        0x000000c4:    4604        .F      MOV      r4,r0
        0x000000c6:    4619        .F      MOV      r1,r3
        0x000000c8:    f7fffff0    ....    BL       __aeabi_memset ; 0xac
        0x000000cc:    4620         F      MOV      r0,r4
        0x000000ce:    bd10        ..      POP      {r4,pc}
    BusFault_Handler
    DebugMon_Handler
    Default_Handler
    HardFault_Handler
    MemManage_Handler
    SecureFault_Handler
    UsageFault_Handler
        0x000000d0:    be00        ..      BKPT     #0
        0x000000d2:    4770        pG      BX       lr
    NMI_Handler
        0x000000d4:    e92d41f0    -..A    PUSH     {r4-r8,lr}
        0x000000d8:    f2461820    F. .    MOV      r8,#0x6120
        0x000000dc:    f2c40800    ....    MOVT     r8,#0x4000
        0x000000e0:    f8b80000    ....    LDRH     r0,[r8,#0]
        0x000000e4:    f8b81020    .. .    LDRH     r1,[r8,#0x20]
        0x000000e8:    f2404544    @.DE    MOV      r5,#0x444
        0x000000ec:    ea010600    ....    AND      r6,r1,r0
        0x000000f0:    b2b7        ..      UXTH     r7,r6
        0x000000f2:    2400        .$      MOVS     r4,#0
        0x000000f4:    f2c20500    ....    MOVT     r5,#0x2000
        0x000000f8:    fa27f004    '...    LSR      r0,r7,r4
        0x000000fc:    07c0        ..      LSLS     r0,r0,#31
        0x000000fe:    d004        ..      BEQ      0x10a ; NMI_Handler + 54
        0x00000100:    f8551024    U.$.    LDR      r1,[r5,r4,LSL #2]
        0x00000104:    b109        ..      CBZ      r1,0x10a ; NMI_Handler + 54
        0x00000106:    4620         F      MOV      r0,r4
        0x00000108:    4788        .G      BLX      r1
        0x0000010a:    3401        .4      ADDS     r4,#1
        0x0000010c:    2c10        .,      CMP      r4,#0x10
        0x0000010e:    d1f3        ..      BNE      0xf8 ; NMI_Handler + 36
        0x00000110:    f8a86010    ...`    STRH     r6,[r8,#0x10]
        0x00000114:    e8bd81f0    ....    POP      {r4-r8,pc}
    OLED_Clear
        0x00000118:    e92d41f0    -..A    PUSH     {r4-r8,lr}
        0x0000011c:    b082        ..      SUB      sp,sp,#8
        0x0000011e:    2600        .&      MOVS     r6,#0
        0x00000120:    2740        @'      MOVS     r7,#0x40
        0x00000122:    f10d0406    ....    ADD      r4,sp,#6
        0x00000126:    bf00        ..      NOP      
        0x00000128:    fa5ff886    _...    UXTB     r8,r6
        0x0000012c:    4640        @F      MOV      r0,r8
        0x0000012e:    2100        .!      MOVS     r1,#0
        0x00000130:    2500        .%      MOVS     r5,#0
        0x00000132:    f000f914    ....    BL       OLED_SetCursor ; 0x35e
        0x00000136:    bf00        ..      NOP      
        0x00000138:    4620         F      MOV      r0,r4
        0x0000013a:    2102        .!      MOVS     r1,#2
        0x0000013c:    f8ad7006    ...p    STRH     r7,[sp,#6]
        0x00000140:    f000f80e    ....    BL       OLED_I2C_SendByte ; 0x160
        0x00000144:    1c68        h.      ADDS     r0,r5,#1
        0x00000146:    b245        E.      SXTB     r5,r0
        0x00000148:    f1b53fff    ...?    CMP      r5,#0xffffffff
        0x0000014c:    dcf4        ..      BGT      0x138 ; OLED_Clear + 32
        0x0000014e:    f1b80f07    ....    CMP      r8,#7
        0x00000152:    f1060601    ....    ADD      r6,r6,#1
        0x00000156:    bf24        $.      ITT      CS
        0x00000158:    b002        ..      ADDCS    sp,sp,#8
        0x0000015a:    e8bd81f0    ....    POPCS    {r4-r8,pc}
        0x0000015e:    e7e3        ..      B        0x128 ; OLED_Clear + 16
    OLED_I2C_SendByte
        0x00000160:    b570        p.      PUSH     {r4-r6,lr}
        0x00000162:    460a        .F      MOV      r2,r1
        0x00000164:    f244014c    D.L.    MOV      r1,#0x404c
        0x00000168:    f2c00100    ....    MOVT     r1,#0
        0x0000016c:    6809        .h      LDR      r1,[r1,#0]
        0x0000016e:    4603        .F      MOV      r3,r0
        0x00000170:    4608        .F      MOV      r0,r1
        0x00000172:    4619        .F      MOV      r1,r3
        0x00000174:    2300        .#      MOVS     r3,#0
        0x00000176:    2400        .$      MOVS     r4,#0
        0x00000178:    f000fb54    ..T.    BL       R_IIC_MASTER_Write ; 0x824
        0x0000017c:    f2404541    @.AE    MOV      r5,#0x441
        0x00000180:    f2c20500    ....    MOVT     r5,#0x2000
        0x00000184:    7828        (x      LDRB     r0,[r5,#0]
        0x00000186:    b948        H.      CBNZ     r0,0x19c ; OLED_I2C_SendByte + 60
        0x00000188:    2664        d&      MOVS     r6,#0x64
        0x0000018a:    bf00        ..      NOP      
        0x0000018c:    2001        .       MOVS     r0,#1
        0x0000018e:    f002fb21    ..!.    BL       vTaskDelay ; 0x27d4
        0x00000192:    7828        (x      LDRB     r0,[r5,#0]
        0x00000194:    b910        ..      CBNZ     r0,0x19c ; OLED_I2C_SendByte + 60
        0x00000196:    3e01        .>      SUBS     r6,#1
        0x00000198:    0430        0.      LSLS     r0,r6,#16
        0x0000019a:    d1f7        ..      BNE      0x18c ; OLED_I2C_SendByte + 44
        0x0000019c:    702c        ,p      STRB     r4,[r5,#0]
        0x0000019e:    bd70        p.      POP      {r4-r6,pc}
    OLED_Init
        0x000001a0:    b580        ..      PUSH     {r7,lr}
        0x000001a2:    b082        ..      SUB      sp,sp,#8
        0x000001a4:    f244004c    D.L.    MOV      r0,#0x404c
        0x000001a8:    f2c00000    ....    MOVT     r0,#0
        0x000001ac:    e9d00100    ....    LDRD     r0,r1,[r0,#0]
        0x000001b0:    f000fae1    ....    BL       R_IIC_MASTER_Open ; 0x776
        0x000001b4:    2064        d       MOVS     r0,#0x64
        0x000001b6:    f002fb0d    ....    BL       vTaskDelay ; 0x27d4
        0x000001ba:    f44f402e    O..@    MOV      r0,#0xae00
        0x000001be:    f8ad0006    ....    STRH     r0,[sp,#6]
        0x000001c2:    f10d0006    ....    ADD      r0,sp,#6
        0x000001c6:    2102        .!      MOVS     r1,#2
        0x000001c8:    f7ffffca    ....    BL       OLED_I2C_SendByte ; 0x160
        0x000001cc:    f44f4055    O.U@    MOV      r0,#0xd500
        0x000001d0:    f8ad0006    ....    STRH     r0,[sp,#6]
        0x000001d4:    f10d0006    ....    ADD      r0,sp,#6
        0x000001d8:    2102        .!      MOVS     r1,#2
        0x000001da:    f7ffffc1    ....    BL       OLED_I2C_SendByte ; 0x160
        0x000001de:    f44f4000    O..@    MOV      r0,#0x8000
        0x000001e2:    f8ad0006    ....    STRH     r0,[sp,#6]
        0x000001e6:    f10d0006    ....    ADD      r0,sp,#6
        0x000001ea:    2102        .!      MOVS     r1,#2
        0x000001ec:    f7ffffb8    ....    BL       OLED_I2C_SendByte ; 0x160
        0x000001f0:    f44f4028    O.(@    MOV      r0,#0xa800
        0x000001f4:    f8ad0006    ....    STRH     r0,[sp,#6]
        0x000001f8:    f10d0006    ....    ADD      r0,sp,#6
        0x000001fc:    2102        .!      MOVS     r1,#2
        0x000001fe:    f7ffffaf    ....    BL       OLED_I2C_SendByte ; 0x160
        0x00000202:    f44f507c    O.|P    MOV      r0,#0x3f00
        0x00000206:    f8ad0006    ....    STRH     r0,[sp,#6]
        0x0000020a:    f10d0006    ....    ADD      r0,sp,#6
        0x0000020e:    2102        .!      MOVS     r1,#2
        0x00000210:    f7ffffa6    ....    BL       OLED_I2C_SendByte ; 0x160
        0x00000214:    f44f4053    O.S@    MOV      r0,#0xd300
        0x00000218:    f8ad0006    ....    STRH     r0,[sp,#6]
        0x0000021c:    f10d0006    ....    ADD      r0,sp,#6
        0x00000220:    2102        .!      MOVS     r1,#2
        0x00000222:    f7ffff9d    ....    BL       OLED_I2C_SendByte ; 0x160
        0x00000226:    2000        .       MOVS     r0,#0
        0x00000228:    f8ad0006    ....    STRH     r0,[sp,#6]
        0x0000022c:    f10d0006    ....    ADD      r0,sp,#6
        0x00000230:    2102        .!      MOVS     r1,#2
        0x00000232:    f7ffff95    ....    BL       OLED_I2C_SendByte ; 0x160
        0x00000236:    f44f4080    O..@    MOV      r0,#0x4000
        0x0000023a:    f8ad0006    ....    STRH     r0,[sp,#6]
        0x0000023e:    f10d0006    ....    ADD      r0,sp,#6
        0x00000242:    2102        .!      MOVS     r1,#2
        0x00000244:    f7ffff8c    ....    BL       OLED_I2C_SendByte ; 0x160
        0x00000248:    f44f4021    O.!@    MOV      r0,#0xa100
        0x0000024c:    f8ad0006    ....    STRH     r0,[sp,#6]
        0x00000250:    f10d0006    ....    ADD      r0,sp,#6
        0x00000254:    2102        .!      MOVS     r1,#2
        0x00000256:    f7ffff83    ....    BL       OLED_I2C_SendByte ; 0x160
        0x0000025a:    f44f4048    O.H@    MOV      r0,#0xc800
        0x0000025e:    f8ad0006    ....    STRH     r0,[sp,#6]
        0x00000262:    f10d0006    ....    ADD      r0,sp,#6
        0x00000266:    2102        .!      MOVS     r1,#2
        0x00000268:    f7ffff7a    ..z.    BL       OLED_I2C_SendByte ; 0x160
        0x0000026c:    f44f405a    O.Z@    MOV      r0,#0xda00
        0x00000270:    f8ad0006    ....    STRH     r0,[sp,#6]
        0x00000274:    f10d0006    ....    ADD      r0,sp,#6
        0x00000278:    2102        .!      MOVS     r1,#2
        0x0000027a:    f7ffff71    ..q.    BL       OLED_I2C_SendByte ; 0x160
        0x0000027e:    f44f5090    O..P    MOV      r0,#0x1200
        0x00000282:    f8ad0006    ....    STRH     r0,[sp,#6]
        0x00000286:    f10d0006    ....    ADD      r0,sp,#6
        0x0000028a:    2102        .!      MOVS     r1,#2
        0x0000028c:    f7ffff68    ..h.    BL       OLED_I2C_SendByte ; 0x160
        0x00000290:    f44f4001    O..@    MOV      r0,#0x8100
        0x00000294:    f8ad0006    ....    STRH     r0,[sp,#6]
        0x00000298:    f10d0006    ....    ADD      r0,sp,#6
        0x0000029c:    2102        .!      MOVS     r1,#2
        0x0000029e:    f7ffff5f    .._.    BL       OLED_I2C_SendByte ; 0x160
        0x000002a2:    f44f404f    O.O@    MOV      r0,#0xcf00
        0x000002a6:    f8ad0006    ....    STRH     r0,[sp,#6]
        0x000002aa:    f10d0006    ....    ADD      r0,sp,#6
        0x000002ae:    2102        .!      MOVS     r1,#2
        0x000002b0:    f7ffff56    ..V.    BL       OLED_I2C_SendByte ; 0x160
        0x000002b4:    f44f4059    O.Y@    MOV      r0,#0xd900
        0x000002b8:    f8ad0006    ....    STRH     r0,[sp,#6]
        0x000002bc:    f10d0006    ....    ADD      r0,sp,#6
        0x000002c0:    2102        .!      MOVS     r1,#2
        0x000002c2:    f7ffff4d    ..M.    BL       OLED_I2C_SendByte ; 0x160
        0x000002c6:    f44f4071    O.q@    MOV      r0,#0xf100
        0x000002ca:    f8ad0006    ....    STRH     r0,[sp,#6]
        0x000002ce:    f10d0006    ....    ADD      r0,sp,#6
        0x000002d2:    2102        .!      MOVS     r1,#2
        0x000002d4:    f7ffff44    ..D.    BL       OLED_I2C_SendByte ; 0x160
        0x000002d8:    f44f405b    O.[@    MOV      r0,#0xdb00
        0x000002dc:    f8ad0006    ....    STRH     r0,[sp,#6]
        0x000002e0:    f10d0006    ....    ADD      r0,sp,#6
        0x000002e4:    2102        .!      MOVS     r1,#2
        0x000002e6:    f7ffff3b    ..;.    BL       OLED_I2C_SendByte ; 0x160
        0x000002ea:    f44f5040    O.@P    MOV      r0,#0x3000
        0x000002ee:    f8ad0006    ....    STRH     r0,[sp,#6]
        0x000002f2:    f10d0006    ....    ADD      r0,sp,#6
        0x000002f6:    2102        .!      MOVS     r1,#2
        0x000002f8:    f7ffff32    ..2.    BL       OLED_I2C_SendByte ; 0x160
        0x000002fc:    f44f4024    O.$@    MOV      r0,#0xa400
        0x00000300:    f8ad0006    ....    STRH     r0,[sp,#6]
        0x00000304:    f10d0006    ....    ADD      r0,sp,#6
        0x00000308:    2102        .!      MOVS     r1,#2
        0x0000030a:    f7ffff29    ..).    BL       OLED_I2C_SendByte ; 0x160
        0x0000030e:    f44f4026    O.&@    MOV      r0,#0xa600
        0x00000312:    f8ad0006    ....    STRH     r0,[sp,#6]
        0x00000316:    f10d0006    ....    ADD      r0,sp,#6
        0x0000031a:    2102        .!      MOVS     r1,#2
        0x0000031c:    f7ffff20    .. .    BL       OLED_I2C_SendByte ; 0x160
        0x00000320:    f44f400d    O..@    MOV      r0,#0x8d00
        0x00000324:    f8ad0006    ....    STRH     r0,[sp,#6]
        0x00000328:    f10d0006    ....    ADD      r0,sp,#6
        0x0000032c:    2102        .!      MOVS     r1,#2
        0x0000032e:    f7ffff17    ....    BL       OLED_I2C_SendByte ; 0x160
        0x00000332:    f44f50a0    O..P    MOV      r0,#0x1400
        0x00000336:    f8ad0006    ....    STRH     r0,[sp,#6]
        0x0000033a:    f10d0006    ....    ADD      r0,sp,#6
        0x0000033e:    2102        .!      MOVS     r1,#2
        0x00000340:    f7ffff0e    ....    BL       OLED_I2C_SendByte ; 0x160
        0x00000344:    f44f402f    O./@    MOV      r0,#0xaf00
        0x00000348:    f8ad0006    ....    STRH     r0,[sp,#6]
        0x0000034c:    f10d0006    ....    ADD      r0,sp,#6
        0x00000350:    2102        .!      MOVS     r1,#2
        0x00000352:    f7ffff05    ....    BL       OLED_I2C_SendByte ; 0x160
        0x00000356:    f7fffedf    ....    BL       OLED_Clear ; 0x118
        0x0000035a:    b002        ..      ADD      sp,sp,#8
        0x0000035c:    bd80        ..      POP      {r7,pc}
    OLED_SetCursor
        0x0000035e:    b5b0        ..      PUSH     {r4,r5,r7,lr}
        0x00000360:    b082        ..      SUB      sp,sp,#8
        0x00000362:    f04000b0    @...    ORR      r0,r0,#0xb0
        0x00000366:    460c        .F      MOV      r4,r1
        0x00000368:    2500        .%      MOVS     r5,#0
        0x0000036a:    f88d0003    ....    STRB     r0,[sp,#3]
        0x0000036e:    f10d0002    ....    ADD      r0,sp,#2
        0x00000372:    2102        .!      MOVS     r1,#2
        0x00000374:    f88d5002    ...P    STRB     r5,[sp,#2]
        0x00000378:    f7fffef2    ....    BL       OLED_I2C_SendByte ; 0x160
        0x0000037c:    0920         .      LSRS     r0,r4,#4
        0x0000037e:    3010        .0      ADDS     r0,r0,#0x10
        0x00000380:    f88d0005    ....    STRB     r0,[sp,#5]
        0x00000384:    a801        ..      ADD      r0,sp,#4
        0x00000386:    2102        .!      MOVS     r1,#2
        0x00000388:    f88d5004    ...P    STRB     r5,[sp,#4]
        0x0000038c:    f7fffee8    ....    BL       OLED_I2C_SendByte ; 0x160
        0x00000390:    f004000f    ....    AND      r0,r4,#0xf
        0x00000394:    f88d0007    ....    STRB     r0,[sp,#7]
        0x00000398:    f10d0006    ....    ADD      r0,sp,#6
        0x0000039c:    2102        .!      MOVS     r1,#2
        0x0000039e:    f88d5006    ...P    STRB     r5,[sp,#6]
        0x000003a2:    f7fffedd    ....    BL       OLED_I2C_SendByte ; 0x160
        0x000003a6:    b002        ..      ADD      sp,sp,#8
        0x000003a8:    bdb0        ..      POP      {r4,r5,r7,pc}
        0x000003aa:    0000        ..      MOVS     r0,r0
    OLED_ShowChar
        0x000003ac:    e92d47f0    -..G    PUSH     {r4-r10,lr}
        0x000003b0:    b082        ..      SUB      sp,sp,#8
        0x000003b2:    4615        .F      MOV      r5,r2
        0x000003b4:    f06f0201    o...    MVN      r2,#1
        0x000003b8:    ea4f0840    O.@.    LSL      r8,r0,#1
        0x000003bc:    eb020040    ..@.    ADD      r0,r2,r0,LSL #1
        0x000003c0:    f06f0207    o...    MVN      r2,#7
        0x000003c4:    eb0201c1    ....    ADD      r1,r2,r1,LSL #3
        0x000003c8:    b2c0        ..      UXTB     r0,r0
        0x000003ca:    fa5ff981    _...    UXTB     r9,r1
        0x000003ce:    4649        IF      MOV      r1,r9
        0x000003d0:    f7ffffc5    ....    BL       OLED_SetCursor ; 0x35e
        0x000003d4:    f64300c8    C...    MOV      r0,#0x38c8
        0x000003d8:    f2c00000    ....    MOVT     r0,#0
        0x000003dc:    eb001a05    ....    ADD      r10,r0,r5,LSL #4
        0x000003e0:    2400        .$      MOVS     r4,#0
        0x000003e2:    f5aa7600    ...v    SUB      r6,r10,#0x200
        0x000003e6:    2740        @'      MOVS     r7,#0x40
        0x000003e8:    ad01        ..      ADD      r5,sp,#4
        0x000003ea:    bf00        ..      NOP      
        0x000003ec:    5d30        0]      LDRB     r0,[r6,r4]
        0x000003ee:    2102        .!      MOVS     r1,#2
        0x000003f0:    f88d0005    ....    STRB     r0,[sp,#5]
        0x000003f4:    4628        (F      MOV      r0,r5
        0x000003f6:    f88d7004    ...p    STRB     r7,[sp,#4]
        0x000003fa:    f7fffeb1    ....    BL       OLED_I2C_SendByte ; 0x160
        0x000003fe:    3401        .4      ADDS     r4,#1
        0x00000400:    2c08        .,      CMP      r4,#8
        0x00000402:    d1f3        ..      BNE      0x3ec ; OLED_ShowChar + 64
        0x00000404:    f1a80001    ....    SUB      r0,r8,#1
        0x00000408:    b2c0        ..      UXTB     r0,r0
        0x0000040a:    4649        IF      MOV      r1,r9
        0x0000040c:    f7ffffa7    ....    BL       OLED_SetCursor ; 0x35e
        0x00000410:    f5aa75fc    ...u    SUB      r5,r10,#0x1f8
        0x00000414:    2600        .&      MOVS     r6,#0
        0x00000416:    2740        @'      MOVS     r7,#0x40
        0x00000418:    f10d0406    ....    ADD      r4,sp,#6
        0x0000041c:    5da8        .]      LDRB     r0,[r5,r6]
        0x0000041e:    2102        .!      MOVS     r1,#2
        0x00000420:    f88d0007    ....    STRB     r0,[sp,#7]
        0x00000424:    4620         F      MOV      r0,r4
        0x00000426:    f88d7006    ...p    STRB     r7,[sp,#6]
        0x0000042a:    f7fffe99    ....    BL       OLED_I2C_SendByte ; 0x160
        0x0000042e:    3601        .6      ADDS     r6,#1
        0x00000430:    2e08        ..      CMP      r6,#8
        0x00000432:    d1f3        ..      BNE      0x41c ; OLED_ShowChar + 112
        0x00000434:    b002        ..      ADD      sp,sp,#8
        0x00000436:    e8bd87f0    ....    POP      {r4-r10,pc}
        0x0000043a:    0000        ..      MOVS     r0,r0
    OLED_ShowString
        0x0000043c:    b5f0        ..      PUSH     {r4-r7,lr}
        0x0000043e:    b081        ..      SUB      sp,sp,#4
        0x00000440:    4614        .F      MOV      r4,r2
        0x00000442:    7812        .x      LDRB     r2,[r2,#0]
        0x00000444:    b16a        j.      CBZ      r2,0x462 ; OLED_ShowString + 38
        0x00000446:    460d        .F      MOV      r5,r1
        0x00000448:    4606        .F      MOV      r6,r0
        0x0000044a:    2700        .'      MOVS     r7,#0
        0x0000044c:    1978        x.      ADDS     r0,r7,r5
        0x0000044e:    b2c1        ..      UXTB     r1,r0
        0x00000450:    b2d2        ..      UXTB     r2,r2
        0x00000452:    4630        0F      MOV      r0,r6
        0x00000454:    f7ffffaa    ....    BL       OLED_ShowChar ; 0x3ac
        0x00000458:    3701        .7      ADDS     r7,#1
        0x0000045a:    b2f8        ..      UXTB     r0,r7
        0x0000045c:    5c22        "\      LDRB     r2,[r4,r0]
        0x0000045e:    2a00        .*      CMP      r2,#0
        0x00000460:    d1f4        ..      BNE      0x44c ; OLED_ShowString + 16
        0x00000462:    b001        ..      ADD      sp,sp,#4
        0x00000464:    bdf0        ..      POP      {r4-r7,pc}
        0x00000466:    0000        ..      MOVS     r0,r0
    PendSV_Handler
        0x00000468:    4b0f        .K      LDR      r3,[pc,#60] ; [0x4a8] = 0x200006d8
        0x0000046a:    6819        .h      LDR      r1,[r3,#0]
        0x0000046c:    f3ef8209    ....    MRS      r2,PSP
        0x00000470:    f01e0f10    ....    TST      lr,#0x10
        0x00000474:    bf08        ..      IT       EQ
        0x00000476:    ed228a10    "...    VSTMDBEQ r2!,{s16-s31}
        0x0000047a:    e9224ff0    "..O    STMDB    r2!,{r4-r11,lr}
        0x0000047e:    f3ef830b    ....    MRS      r3,PSPLIM
        0x00000482:    f8423d04    B..=    STR      r3,[r2,#-4]!
        0x00000486:    600a        .`      STR      r2,[r1,#0]
        0x00000488:    f04f0010    O...    MOV      r0,#0x10
        0x0000048c:    f3808811    ....    MSR      BASEPRI,r0
        0x00000490:    f3bf8f4f    ..O.    DSB      
        0x00000494:    f3bf8f6f    ..o.    ISB      
        0x00000498:    f002fa92    ....    BL       vTaskSwitchContext ; 0x29c0
        0x0000049c:    f04f0000    O...    MOV      r0,#0
        0x000004a0:    f3808811    ....    MSR      BASEPRI,r0
        0x000004a4:    f001bee2    ....    B.W      rm_freertos_port_restore_task_stackless ; 0x226c
    $d
        0x000004a8:    200006d8    ...     DCD    536872664
    $t
    R_BSP_Init_RTC
        0x000004ac:    b5b0        ..      PUSH     {r4,r5,r7,lr}
        0x000004ae:    f2430424    C.$.    MOV      r4,#0x3024
        0x000004b2:    f2c40408    ....    MOVT     r4,#0x4008
        0x000004b6:    2500        .%      MOVS     r5,#0
        0x000004b8:    20c8        .       MOVS     r0,#0xc8
        0x000004ba:    2101        .!      MOVS     r1,#1
        0x000004bc:    7125        %q      STRB     r5,[r4,#4]
        0x000004be:    f000f882    ....    BL       R_BSP_SoftwareDelay ; 0x5c6
        0x000004c2:    7025        %p      STRB     r5,[r4,#0]
        0x000004c4:    7820         x      LDRB     r0,[r4,#0]
        0x000004c6:    2800        .(      CMP      r0,#0
        0x000004c8:    d1fc        ..      BNE      0x4c4 ; R_BSP_Init_RTC + 24
        0x000004ca:    7820         x      LDRB     r0,[r4,#0]
        0x000004cc:    f0400002    @...    ORR      r0,r0,#2
        0x000004d0:    7020         p      STRB     r0,[r4,#0]
        0x000004d2:    bf00        ..      NOP      
        0x000004d4:    7820         x      LDRB     r0,[r4,#0]
        0x000004d6:    0780        ..      LSLS     r0,r0,#30
        0x000004d8:    d4fc        ..      BMI      0x4d4 ; R_BSP_Init_RTC + 40
        0x000004da:    2000        .       MOVS     r0,#0
        0x000004dc:    f8040c02    ....    STRB     r0,[r4,#-2]
        0x000004e0:    f8140c02    ....    LDRB     r0,[r4,#-2]
        0x000004e4:    2800        .(      CMP      r0,#0
        0x000004e6:    d1fb        ..      BNE      0x4e0 ; R_BSP_Init_RTC + 52
        0x000004e8:    2000        .       MOVS     r0,#0
        0x000004ea:    f104011c    ....    ADD      r1,r4,#0x1c
        0x000004ee:    bf00        ..      NOP      
        0x000004f0:    f8112010    ...     LDRB     r2,[r1,r0,LSL #1]
        0x000004f4:    f002027f    ....    AND      r2,r2,#0x7f
        0x000004f8:    f8012010    ...     STRB     r2,[r1,r0,LSL #1]
        0x000004fc:    f9112010    ...     LDRSB    r2,[r1,r0,LSL #1]
        0x00000500:    2a00        .*      CMP      r2,#0
        0x00000502:    d4fb        ..      BMI      0x4fc ; R_BSP_Init_RTC + 80
        0x00000504:    3001        .0      ADDS     r0,#1
        0x00000506:    2803        .(      CMP      r0,#3
        0x00000508:    d1f2        ..      BNE      0x4f0 ; R_BSP_Init_RTC + 68
        0x0000050a:    2001        .       MOVS     r0,#1
        0x0000050c:    f000f80b    ....    BL       R_BSP_RegisterProtectDisable ; 0x526
        0x00000510:    f24e42bb    N..B    MOV      r2,#0xe4bb
        0x00000514:    2100        .!      MOVS     r1,#0
        0x00000516:    f2c40201    ....    MOVT     r2,#0x4001
        0x0000051a:    2001        .       MOVS     r0,#1
        0x0000051c:    7011        .p      STRB     r1,[r2,#0]
        0x0000051e:    e8bd40b0    ...@    POP      {r4,r5,r7,lr}
        0x00000522:    f000b827    ..'.    B.W      R_BSP_RegisterProtectEnable ; 0x574
    R_BSP_RegisterProtectDisable
        0x00000526:    b580        ..      PUSH     {r7,lr}
        0x00000528:    2201        ."      MOVS     r2,#1
        0x0000052a:    f3ef8110    ....    MRS      r1,PRIMASK
        0x0000052e:    f3828810    ....    MSR      PRIMASK,r2
        0x00000532:    f2405224    @.$R    MOV      r2,#0x524
        0x00000536:    f2c20200    ....    MOVT     r2,#0x2000
        0x0000053a:    f8323010    2..0    LDRH     r3,[r2,r0,LSL #1]
        0x0000053e:    b98b        ..      CBNZ     r3,0x564 ; R_BSP_RegisterProtectDisable + 62
        0x00000540:    f24e3cfe    N..<    MOV      r12,#0xe3fe
        0x00000544:    f244131c    D...    MOV      r3,#0x411c
        0x00000548:    f2c40c01    ....    MOVT     r12,#0x4001
        0x0000054c:    f2c00300    ....    MOVT     r3,#0
        0x00000550:    f8bce000    ....    LDRH     lr,[r12,#0]
        0x00000554:    f8333010    3..0    LDRH     r3,[r3,r0,LSL #1]
        0x00000558:    ea43030e    C...    ORR      r3,r3,lr
        0x0000055c:    f4434325    C.%C    ORR      r3,r3,#0xa500
        0x00000560:    f8ac3000    ...0    STRH     r3,[r12,#0]
        0x00000564:    f8323010    2..0    LDRH     r3,[r2,r0,LSL #1]
        0x00000568:    3301        .3      ADDS     r3,#1
        0x0000056a:    f8223010    "..0    STRH     r3,[r2,r0,LSL #1]
        0x0000056e:    f3818810    ....    MSR      PRIMASK,r1
        0x00000572:    bd80        ..      POP      {r7,pc}
    R_BSP_RegisterProtectEnable
        0x00000574:    2201        ."      MOVS     r2,#1
        0x00000576:    f3ef8110    ....    MRS      r1,PRIMASK
        0x0000057a:    f3828810    ....    MSR      PRIMASK,r2
        0x0000057e:    f2405224    @.$R    MOV      r2,#0x524
        0x00000582:    f2c20200    ....    MOVT     r2,#0x2000
        0x00000586:    f8323010    2..0    LDRH     r3,[r2,r0,LSL #1]
        0x0000058a:    b123        #.      CBZ      r3,0x596 ; R_BSP_RegisterProtectEnable + 34
        0x0000058c:    f8323010    2..0    LDRH     r3,[r2,r0,LSL #1]
        0x00000590:    3b01        .;      SUBS     r3,#1
        0x00000592:    f8223010    "..0    STRH     r3,[r2,r0,LSL #1]
        0x00000596:    f8322010    2..     LDRH     r2,[r2,r0,LSL #1]
        0x0000059a:    b98a        ..      CBNZ     r2,0x5c0 ; R_BSP_RegisterProtectEnable + 76
        0x0000059c:    f24e3cfe    N..<    MOV      r12,#0xe3fe
        0x000005a0:    f2c40c01    ....    MOVT     r12,#0x4001
        0x000005a4:    f244121c    D...    MOV      r2,#0x411c
        0x000005a8:    f8bc3000    ...0    LDRH     r3,[r12,#0]
        0x000005ac:    f2c00200    ....    MOVT     r2,#0
        0x000005b0:    f8320010    2...    LDRH     r0,[r2,r0,LSL #1]
        0x000005b4:    f4434225    C.%B    ORR      r2,r3,#0xa500
        0x000005b8:    ea220000    "...    BIC      r0,r2,r0
        0x000005bc:    f8ac0000    ....    STRH     r0,[r12,#0]
        0x000005c0:    f3818810    ....    MSR      PRIMASK,r1
        0x000005c4:    4770        pG      BX       lr
    R_BSP_SoftwareDelay
        0x000005c6:    f240423c    @.<B    MOV      r2,#0x43c
        0x000005ca:    f2c20200    ....    MOVT     r2,#0x2000
        0x000005ce:    6812        .h      LDR      r2,[r2,#0]
        0x000005d0:    fb01f000    ....    MUL      r0,r1,r0
        0x000005d4:    f2412100    A..!    MOVW     r1,#0x1200
        0x000005d8:    f2c0017a    ..z.    MOVT     r1,#0x7a
        0x000005dc:    428a        .B      CMP      r2,r1
        0x000005de:    d30f        ..      BCC      0x600 ; R_BSP_SoftwareDelay + 58
        0x000005e0:    f64001ff    @...    MOV      r1,#0x8ff
        0x000005e4:    f2c0013d    ..=.    MOVT     r1,#0x3d
        0x000005e8:    4411        .D      ADD      r1,r1,r2
        0x000005ea:    f64d6283    M..b    MOV      r2,#0xde83
        0x000005ee:    f2c4321b    ...2    MOVT     r2,#0x431b
        0x000005f2:    fba11202    ....    UMULL    r1,r2,r1,r2
        0x000005f6:    0d11        ..      LSRS     r1,r2,#20
        0x000005f8:    fba00101    ....    UMULL    r0,r1,r0,r1
        0x000005fc:    b1e9        ..      CBZ      r1,0x63a ; R_BSP_SoftwareDelay + 116
        0x000005fe:    e01f        ..      B        0x640 ; R_BSP_SoftwareDelay + 122
        0x00000600:    f64c2100    L..!    MOVW     r1,#0xca00
        0x00000604:    f6c3319a    ...1    MOVT     r1,#0x3b9a
        0x00000608:    f6481338    H.8.    MOV      r3,#0x8938
        0x0000060c:    f2c00341    ..A.    MOVT     r3,#0x41
        0x00000610:    fbb1f1f2    ....    UDIV     r1,r1,r2
        0x00000614:    4298        .B      CMP      r0,r3
        0x00000616:    d207        ..      BCS      0x628 ; R_BSP_SoftwareDelay + 98
        0x00000618:    f44f727a    O.zr    MOV      r2,#0x3e8
        0x0000061c:    fb00f002    ....    MUL      r0,r0,r2
        0x00000620:    fbb0f0f1    ....    UDIV     r0,r0,r1
        0x00000624:    0880        ..      LSRS     r0,r0,#2
        0x00000626:    e008        ..      B        0x63a ; R_BSP_SoftwareDelay + 116
        0x00000628:    0089        ..      LSLS     r1,r1,#2
        0x0000062a:    fbb0f0f1    ....    UDIV     r0,r0,r1
        0x0000062e:    4298        .B      CMP      r0,r3
        0x00000630:    d206        ..      BCS      0x640 ; R_BSP_SoftwareDelay + 122
        0x00000632:    f44f717a    O.zq    MOV      r1,#0x3e8
        0x00000636:    fb00f001    ....    MUL      r0,r0,r1
        0x0000063a:    b128        (.      CBZ      r0,0x648 ; R_BSP_SoftwareDelay + 130
        0x0000063c:    f000bd21    ..!.    B.W      bsp_prv_software_delay_loop ; 0x1082
        0x00000640:    f04f30ff    O..0    MOV      r0,#0xffffffff
        0x00000644:    f000bd1d    ....    B.W      bsp_prv_software_delay_loop ; 0x1082
        0x00000648:    4770        pG      BX       lr
    R_BSP_SubClockStabilizeWaitAfterReset
        0x0000064a:    4770        pG      BX       lr
    R_BSP_WarmStart
        0x0000064c:    2802        .(      CMP      r0,#2
        0x0000064e:    bf18        ..      IT       NE
        0x00000650:    4770        pG      BXNE     lr
        0x00000652:    f2405018    @..P    MOVW     r0,#0x518
        0x00000656:    f6437138    C.8q    MOV      r1,#0x3f38
        0x0000065a:    f2c20000    ....    MOVT     r0,#0x2000
        0x0000065e:    f2c00100    ....    MOVT     r1,#0
        0x00000662:    f000b8e5    ....    B.W      R_IOPORT_Open ; 0x830
    R_IIC_MASTER_Abort
        0x00000666:    b5b0        ..      PUSH     {r4,r5,r7,lr}
        0x00000668:    4604        .F      MOV      r4,r0
        0x0000066a:    6900        .i      LDR      r0,[r0,#0x10]
        0x0000066c:    2500        .%      MOVS     r5,#0
        0x0000066e:    71c5        .q      STRB     r5,[r0,#7]
        0x00000670:    6821        !h      LDR      r1,[r4,#0]
        0x00000672:    4620         F      MOV      r0,r4
        0x00000674:    f000ff36    ..6.    BL       iic_master_open_hw_master ; 0x14e4
        0x00000678:    f8940026    ..&.    LDRB     r0,[r4,#0x26]
        0x0000067c:    6921        !i      LDR      r1,[r4,#0x10]
        0x0000067e:    f8840028    ..(.    STRB     r0,[r4,#0x28]
        0x00000682:    69a0        .i      LDR      r0,[r4,#0x18]
        0x00000684:    22b3        ."      MOVS     r2,#0xb3
        0x00000686:    e9c45007    ...P    STRD     r5,r0,[r4,#0x1c]
        0x0000068a:    2000        .       MOVS     r0,#0
        0x0000068c:    f884502c    ..,P    STRB     r5,[r4,#0x2c]
        0x00000690:    f884502a    ..*P    STRB     r5,[r4,#0x2a]
        0x00000694:    71ca        .q      STRB     r2,[r1,#7]
        0x00000696:    bdb0        ..      POP      {r4,r5,r7,pc}
    R_IIC_MASTER_CallbackSet
        0x00000698:    4684        .F      MOV      r12,r0
        0x0000069a:    e9c0130d    ....    STRD     r1,r3,[r0,#0x34]
        0x0000069e:    2000        .       MOVS     r0,#0
        0x000006a0:    f8cc203c    ..<     STR      r2,[r12,#0x3c]
        0x000006a4:    4770        pG      BX       lr
    R_IIC_MASTER_Close
        0x000006a6:    b5b0        ..      PUSH     {r4,r5,r7,lr}
        0x000006a8:    4604        .F      MOV      r4,r0
        0x000006aa:    6900        .i      LDR      r0,[r0,#0x10]
        0x000006ac:    2500        .%      MOVS     r5,#0
        0x000006ae:    71c5        .q      STRB     r5,[r0,#7]
        0x000006b0:    6821        !h      LDR      r1,[r4,#0]
        0x000006b2:    4620         F      MOV      r0,r4
        0x000006b4:    f000ff16    ....    BL       iic_master_open_hw_master ; 0x14e4
        0x000006b8:    f8940026    ..&.    LDRB     r0,[r4,#0x26]
        0x000006bc:    6921        !i      LDR      r1,[r4,#0x10]
        0x000006be:    f8840028    ..(.    STRB     r0,[r4,#0x28]
        0x000006c2:    69a0        .i      LDR      r0,[r4,#0x18]
        0x000006c4:    f24e1380    N...    MOV      r3,#0xe180
        0x000006c8:    e9c45007    ...P    STRD     r5,r0,[r4,#0x1c]
        0x000006cc:    20b3        .       MOVS     r0,#0xb3
        0x000006ce:    f884502c    ..,P    STRB     r5,[r4,#0x2c]
        0x000006d2:    f884502a    ..*P    STRB     r5,[r4,#0x2a]
        0x000006d6:    71c8        .q      STRB     r0,[r1,#7]
        0x000006d8:    6920         i      LDR      r0,[r4,#0x10]
        0x000006da:    f2ce0300    ....    MOVT     r3,#0xe000
        0x000006de:    71c5        .q      STRB     r5,[r0,#7]
        0x000006e0:    6820         h      LDR      r0,[r4,#0]
        0x000006e2:    60e5        .`      STR      r5,[r4,#0xc]
        0x000006e4:    6a01        .j      LDR      r1,[r0,#0x20]
        0x000006e6:    2001        .       MOVS     r0,#1
        0x000006e8:    f001021f    ....    AND      r2,r1,#0x1f
        0x000006ec:    fa00f202    ....    LSL      r2,r0,r2
        0x000006f0:    0949        I.      LSRS     r1,r1,#5
        0x000006f2:    f8432021    C.!     STR      r2,[r3,r1,LSL #2]
        0x000006f6:    f3bf8f4f    ..O.    DSB      
        0x000006fa:    f3bf8f6f    ..o.    ISB      
        0x000006fe:    6821        !h      LDR      r1,[r4,#0]
        0x00000700:    6949        Ii      LDR      r1,[r1,#0x14]
        0x00000702:    f001021f    ....    AND      r2,r1,#0x1f
        0x00000706:    fa00f202    ....    LSL      r2,r0,r2
        0x0000070a:    0949        I.      LSRS     r1,r1,#5
        0x0000070c:    f8432021    C.!     STR      r2,[r3,r1,LSL #2]
        0x00000710:    f3bf8f4f    ..O.    DSB      
        0x00000714:    f3bf8f6f    ..o.    ISB      
        0x00000718:    6821        !h      LDR      r1,[r4,#0]
        0x0000071a:    69c9        .i      LDR      r1,[r1,#0x1c]
        0x0000071c:    f001021f    ....    AND      r2,r1,#0x1f
        0x00000720:    fa00f202    ....    LSL      r2,r0,r2
        0x00000724:    0949        I.      LSRS     r1,r1,#5
        0x00000726:    f8432021    C.!     STR      r2,[r3,r1,LSL #2]
        0x0000072a:    f3bf8f4f    ..O.    DSB      
        0x0000072e:    f3bf8f6f    ..o.    ISB      
        0x00000732:    6821        !h      LDR      r1,[r4,#0]
        0x00000734:    6989        .i      LDR      r1,[r1,#0x18]
        0x00000736:    f001021f    ....    AND      r2,r1,#0x1f
        0x0000073a:    fa00f202    ....    LSL      r2,r0,r2
        0x0000073e:    0949        I.      LSRS     r1,r1,#5
        0x00000740:    f8432021    C.!     STR      r2,[r3,r1,LSL #2]
        0x00000744:    f3bf8f4f    ..O.    DSB      
        0x00000748:    f3bf8f6f    ..o.    ISB      
        0x0000074c:    f3ef8110    ....    MRS      r1,PRIMASK
        0x00000750:    f3808810    ....    MSR      PRIMASK,r0
        0x00000754:    f2440304    D...    MOV      r3,#0x4004
        0x00000758:    6822        "h      LDR      r2,[r4,#0]
        0x0000075a:    f2c40308    ....    MOVT     r3,#0x4008
        0x0000075e:    7812        .x      LDRB     r2,[r2,#0]
        0x00000760:    681d        .h      LDR      r5,[r3,#0]
        0x00000762:    f1c20209    ....    RSB      r2,r2,#9
        0x00000766:    4090        .@      LSLS     r0,r0,r2
        0x00000768:    4328        (C      ORRS     r0,r0,r5
        0x0000076a:    6018        .`      STR      r0,[r3,#0]
        0x0000076c:    6818        .h      LDR      r0,[r3,#0]
        0x0000076e:    f3818810    ....    MSR      PRIMASK,r1
        0x00000772:    2000        .       MOVS     r0,#0
        0x00000774:    bdb0        ..      POP      {r4,r5,r7,pc}
    R_IIC_MASTER_Open
        0x00000776:    b510        ..      PUSH     {r4,lr}
        0x00000778:    780a        .x      LDRB     r2,[r1,#0]
        0x0000077a:    f24f0300    O...    MOVW     r3,#0xf000
        0x0000077e:    f2c40309    ....    MOVT     r3,#0x4009
        0x00000782:    eb032202    ..."    ADD      r2,r3,r2,LSL #8
        0x00000786:    4604        .F      MOV      r4,r0
        0x00000788:    6102        .a      STR      r2,[r0,#0x10]
        0x0000078a:    6001        .`      STR      r1,[r0,#0]
        0x0000078c:    e9d10202    ....    LDRD     r0,r2,[r1,#8]
        0x00000790:    f04f0c01    O...    MOV      r12,#1
        0x00000794:    e9c40201    ....    STRD     r0,r2,[r4,#4]
        0x00000798:    e9d1020b    ....    LDRD     r0,r2,[r1,#0x2c]
        0x0000079c:    6360        `c      STR      r0,[r4,#0x34]
        0x0000079e:    2000        .       MOVS     r0,#0
        0x000007a0:    63e2        .c      STR      r2,[r4,#0x3c]
        0x000007a2:    63a0        .c      STR      r0,[r4,#0x38]
        0x000007a4:    e9c40005    ....    STRD     r0,r0,[r4,#0x14]
        0x000007a8:    e9c40007    ....    STRD     r0,r0,[r4,#0x1c]
        0x000007ac:    f8840029    ..).    STRB     r0,[r4,#0x29]
        0x000007b0:    f884002a    ..*.    STRB     r0,[r4,#0x2a]
        0x000007b4:    f884002b    ..+.    STRB     r0,[r4,#0x2b]
        0x000007b8:    f884002c    ..,.    STRB     r0,[r4,#0x2c]
        0x000007bc:    f3ef8e10    ....    MRS      lr,PRIMASK
        0x000007c0:    f38c8810    ....    MSR      PRIMASK,r12
        0x000007c4:    f2440004    D...    MOV      r0,#0x4004
        0x000007c8:    780b        .x      LDRB     r3,[r1,#0]
        0x000007ca:    f2c40008    ....    MOVT     r0,#0x4008
        0x000007ce:    f1c30309    ....    RSB      r3,r3,#9
        0x000007d2:    6802        .h      LDR      r2,[r0,#0]
        0x000007d4:    fa0cf303    ....    LSL      r3,r12,r3
        0x000007d8:    439a        .C      BICS     r2,r2,r3
        0x000007da:    6002        .`      STR      r2,[r0,#0]
        0x000007dc:    6800        .h      LDR      r0,[r0,#0]
        0x000007de:    f38e8810    ....    MSR      PRIMASK,lr
        0x000007e2:    4620         F      MOV      r0,r4
        0x000007e4:    f000fe7e    ..~.    BL       iic_master_open_hw_master ; 0x14e4
        0x000007e8:    f6441143    D.C.    MOV      r1,#0x4943
        0x000007ec:    f2c52149    ..I!    MOVT     r1,#0x5249
        0x000007f0:    2000        .       MOVS     r0,#0
        0x000007f2:    60e1        .`      STR      r1,[r4,#0xc]
        0x000007f4:    bd10        ..      POP      {r4,pc}
    R_IIC_MASTER_Read
        0x000007f6:    469c        .F      MOV      r12,r3
        0x000007f8:    2301        .#      MOVS     r3,#1
        0x000007fa:    f880c02a    ..*.    STRB     r12,[r0,#0x2a]
        0x000007fe:    f000bf2d    ..-.    B.W      iic_master_read_write ; 0x165c
    R_IIC_MASTER_SlaveAddressSet
        0x00000802:    4603        .F      MOV      r3,r0
        0x00000804:    2000        .       MOVS     r0,#0
        0x00000806:    e9c31201    ....    STRD     r1,r2,[r3,#4]
        0x0000080a:    4770        pG      BX       lr
    R_IIC_MASTER_StatusGet
        0x0000080c:    68c0        .h      LDR      r0,[r0,#0xc]
        0x0000080e:    f24b62bd    K..b    MOV      r2,#0xb6bd
        0x00000812:    f6ca52b6    ...R    MOVT     r2,#0xadb6
        0x00000816:    4410        .D      ADD      r0,r0,r2
        0x00000818:    fab0f080    ....    CLZ      r0,r0
        0x0000081c:    0942        B.      LSRS     r2,r0,#5
        0x0000081e:    2000        .       MOVS     r0,#0
        0x00000820:    700a        .p      STRB     r2,[r1,#0]
        0x00000822:    4770        pG      BX       lr
    R_IIC_MASTER_Write
        0x00000824:    469c        .F      MOV      r12,r3
        0x00000826:    2300        .#      MOVS     r3,#0
        0x00000828:    f880c02a    ..*.    STRB     r12,[r0,#0x2a]
        0x0000082c:    f000bf16    ....    B.W      iic_master_read_write ; 0x165c
    R_IOPORT_Open
        0x00000830:    b580        ..      PUSH     {r7,lr}
        0x00000832:    f2452254    E.T"    MOV      r2,#0x5254
        0x00000836:    f2c5024f    ..O.    MOVT     r2,#0x504f
        0x0000083a:    6002        .`      STR      r2,[r0,#0]
        0x0000083c:    4608        .F      MOV      r0,r1
        0x0000083e:    f001fc95    ....    BL       r_ioport_pins_config ; 0x216c
        0x00000842:    2000        .       MOVS     r0,#0
        0x00000844:    bd80        ..      POP      {r7,pc}
    R_SCI_UART_Abort
        0x00000846:    078a        ..      LSLS     r2,r1,#30
        0x00000848:    d401        ..      BMI      0x84e ; R_SCI_UART_Abort + 8
        0x0000084a:    2206        ."      MOVS     r2,#6
        0x0000084c:    e006        ..      B        0x85c ; R_SCI_UART_Abort + 22
        0x0000084e:    6a02        .j      LDR      r2,[r0,#0x20]
        0x00000850:    7893        .x      LDRB     r3,[r2,#2]
        0x00000852:    f003037b    ..{.    AND      r3,r3,#0x7b
        0x00000856:    7093        .p      STRB     r3,[r2,#2]
        0x00000858:    2200        ."      MOVS     r2,#0
        0x0000085a:    6102        .a      STR      r2,[r0,#0x10]
        0x0000085c:    07c9        ..      LSLS     r1,r1,#31
        0x0000085e:    bf1c        ..      ITT      NE
        0x00000860:    2200        ."      MOVNE    r2,#0
        0x00000862:    6182        .a      STRNE    r2,[r0,#0x18]
        0x00000864:    4610        .F      MOV      r0,r2
        0x00000866:    4770        pG      BX       lr
    R_SCI_UART_BaudSet
        0x00000868:    b510        ..      PUSH     {r4,lr}
        0x0000086a:    69c2        .i      LDR      r2,[r0,#0x1c]
        0x0000086c:    2301        .#      MOVS     r3,#1
        0x0000086e:    7812        .x      LDRB     r2,[r2,#0]
        0x00000870:    fa03f202    ....    LSL      r2,r3,r2
        0x00000874:    f0120f06    ....    TST      r2,#6
        0x00000878:    d002        ..      BEQ      0x880 ; R_SCI_UART_BaudSet + 24
        0x0000087a:    780a        .x      LDRB     r2,[r1,#0]
        0x0000087c:    0712        ..      LSLS     r2,r2,#28
        0x0000087e:    d423        #.      BMI      0x8c8 ; R_SCI_UART_BaudSet + 96
        0x00000880:    6a02        .j      LDR      r2,[r0,#0x20]
        0x00000882:    f04f0e00    O...    MOV      lr,#0
        0x00000886:    f892c002    ....    LDRB     r12,[r2,#2]
        0x0000088a:    f00c030b    ....    AND      r3,r12,#0xb
        0x0000088e:    7093        .p      STRB     r3,[r2,#2]
        0x00000890:    6a03        .j      LDR      r3,[r0,#0x20]
        0x00000892:    788a        .x      LDRB     r2,[r1,#2]
        0x00000894:    f8c0e00c    ....    STR      lr,[r0,#0xc]
        0x00000898:    705a        Zp      STRB     r2,[r3,#1]
        0x0000089a:    784a        Jx      LDRB     r2,[r1,#1]
        0x0000089c:    781c        .x      LDRB     r4,[r3,#0]
        0x0000089e:    f0020203    ....    AND      r2,r2,#3
        0x000008a2:    f00404fc    ....    AND      r4,r4,#0xfc
        0x000008a6:    4422        "D      ADD      r2,r2,r4
        0x000008a8:    701a        .p      STRB     r2,[r3,#0]
        0x000008aa:    78ca        .x      LDRB     r2,[r1,#3]
        0x000008ac:    749a        .t      STRB     r2,[r3,#0x12]
        0x000008ae:    79da        .y      LDRB     r2,[r3,#7]
        0x000008b0:    7809        .x      LDRB     r1,[r1,#0]
        0x000008b2:    f00202a3    ....    AND      r2,r2,#0xa3
        0x000008b6:    f001015c    ..\.    AND      r1,r1,#0x5c
        0x000008ba:    4411        .D      ADD      r1,r1,r2
        0x000008bc:    71d9        .q      STRB     r1,[r3,#7]
        0x000008be:    6a00        .j      LDR      r0,[r0,#0x20]
        0x000008c0:    f00c017b    ..{.    AND      r1,r12,#0x7b
        0x000008c4:    7081        .p      STRB     r1,[r0,#2]
        0x000008c6:    e001        ..      B        0x8cc ; R_SCI_UART_BaudSet + 100
        0x000008c8:    f04f0e03    O...    MOV      lr,#3
        0x000008cc:    4670        pF      MOV      r0,lr
        0x000008ce:    bd10        ..      POP      {r4,pc}
    R_SCI_UART_CallbackSet
        0x000008d0:    4684        .F      MOV      r12,r0
        0x000008d2:    e9c01309    ....    STRD     r1,r3,[r0,#0x24]
        0x000008d6:    2000        .       MOVS     r0,#0
        0x000008d8:    f8cc202c    ..,     STR      r2,[r12,#0x2c]
        0x000008dc:    4770        pG      BX       lr
    R_SCI_UART_Close
        0x000008de:    6a02        .j      LDR      r2,[r0,#0x20]
        0x000008e0:    2100        .!      MOVS     r1,#0
        0x000008e2:    6041        A`      STR      r1,[r0,#4]
        0x000008e4:    7091        .p      STRB     r1,[r2,#2]
        0x000008e6:    69c1        .i      LDR      r1,[r0,#0x1c]
        0x000008e8:    f24e1c80    N...    MOV      r12,#0xe180
        0x000008ec:    694a        Ji      LDR      r2,[r1,#0x14]
        0x000008ee:    2101        .!      MOVS     r1,#1
        0x000008f0:    f002031f    ....    AND      r3,r2,#0x1f
        0x000008f4:    fa01f303    ....    LSL      r3,r1,r3
        0x000008f8:    0952        R.      LSRS     r2,r2,#5
        0x000008fa:    f2ce0c00    ....    MOVT     r12,#0xe000
        0x000008fe:    f84c3022    L."0    STR      r3,[r12,r2,LSL #2]
        0x00000902:    f3bf8f4f    ..O.    DSB      
        0x00000906:    f3bf8f6f    ..o.    ISB      
        0x0000090a:    69c2        .i      LDR      r2,[r0,#0x1c]
        0x0000090c:    6ad2        .j      LDR      r2,[r2,#0x2c]
        0x0000090e:    f002031f    ....    AND      r3,r2,#0x1f
        0x00000912:    fa01f303    ....    LSL      r3,r1,r3
        0x00000916:    0952        R.      LSRS     r2,r2,#5
        0x00000918:    f84c3022    L."0    STR      r3,[r12,r2,LSL #2]
        0x0000091c:    f3bf8f4f    ..O.    DSB      
        0x00000920:    f3bf8f6f    ..o.    ISB      
        0x00000924:    69c2        .i      LDR      r2,[r0,#0x1c]
        0x00000926:    69d2        .i      LDR      r2,[r2,#0x1c]
        0x00000928:    f002031f    ....    AND      r3,r2,#0x1f
        0x0000092c:    fa01f303    ....    LSL      r3,r1,r3
        0x00000930:    0952        R.      LSRS     r2,r2,#5
        0x00000932:    f84c3022    L."0    STR      r3,[r12,r2,LSL #2]
        0x00000936:    f3bf8f4f    ..O.    DSB      
        0x0000093a:    f3bf8f6f    ..o.    ISB      
        0x0000093e:    69c2        .i      LDR      r2,[r0,#0x1c]
        0x00000940:    6a52        Rj      LDR      r2,[r2,#0x24]
        0x00000942:    f002031f    ....    AND      r3,r2,#0x1f
        0x00000946:    fa01f303    ....    LSL      r3,r1,r3
        0x0000094a:    0952        R.      LSRS     r2,r2,#5
        0x0000094c:    f84c3022    L."0    STR      r3,[r12,r2,LSL #2]
        0x00000950:    f3bf8f4f    ..O.    DSB      
        0x00000954:    f3bf8f6f    ..o.    ISB      
        0x00000958:    f3ef8210    ....    MRS      r2,PRIMASK
        0x0000095c:    f3818810    ....    MSR      PRIMASK,r1
        0x00000960:    f2440304    D...    MOV      r3,#0x4004
        0x00000964:    69c0        .i      LDR      r0,[r0,#0x1c]
        0x00000966:    f2c40308    ....    MOVT     r3,#0x4008
        0x0000096a:    7800        .x      LDRB     r0,[r0,#0]
        0x0000096c:    f04f4c00    O..L    MOV      r12,#0x80000000
        0x00000970:    6819        .h      LDR      r1,[r3,#0]
        0x00000972:    fa2cf000    ,...    LSR      r0,r12,r0
        0x00000976:    4308        .C      ORRS     r0,r0,r1
        0x00000978:    6018        .`      STR      r0,[r3,#0]
        0x0000097a:    6818        .h      LDR      r0,[r3,#0]
        0x0000097c:    f3828810    ....    MSR      PRIMASK,r2
        0x00000980:    2000        .       MOVS     r0,#0
        0x00000982:    4770        pG      BX       lr
    R_SCI_UART_InfoGet
        0x00000984:    f04f32ff    O..2    MOV      r2,#0xffffffff
        0x00000988:    2000        .       MOVS     r0,#0
        0x0000098a:    600a        .`      STR      r2,[r1,#0]
        0x0000098c:    604a        J`      STR      r2,[r1,#4]
        0x0000098e:    4770        pG      BX       lr
    R_SCI_UART_Open
        0x00000990:    780a        .x      LDRB     r2,[r1,#0]
        0x00000992:    2301        .#      MOVS     r3,#1
        0x00000994:    4093        .@      LSLS     r3,r3,r2
        0x00000996:    f0130f06    ....    TST      r3,#6
        0x0000099a:    d005        ..      BEQ      0x9a8 ; R_SCI_UART_Open + 24
        0x0000099c:    6c0b        .l      LDR      r3,[r1,#0x40]
        0x0000099e:    68db        .h      LDR      r3,[r3,#0xc]
        0x000009a0:    781b        .x      LDRB     r3,[r3,#0]
        0x000009a2:    071b        ..      LSLS     r3,r3,#28
        0x000009a4:    f10080e0    ....    BMI.W    0xb68 ; R_SCI_UART_Open + 472
        0x000009a8:    e92d47f0    -..G    PUSH     {r4-r10,lr}
        0x000009ac:    f2480300    H...    MOVW     r3,#0x8000
        0x000009b0:    f2c40311    ....    MOVT     r3,#0x4011
        0x000009b4:    ea432202    C.."    ORR      r2,r3,r2,LSL #8
        0x000009b8:    e9d1360e    ...6    LDRD     r3,r6,[r1,#0x38]
        0x000009bc:    f04f0800    O...    MOV      r8,#0
        0x000009c0:    6243        Cb      STR      r3,[r0,#0x24]
        0x000009c2:    7883        .x      LDRB     r3,[r0,#2]
        0x000009c4:    62c6        .b      STR      r6,[r0,#0x2c]
        0x000009c6:    f0230303    #...    BIC      r3,r3,#3
        0x000009ca:    1c5e        ^.      ADDS     r6,r3,#1
        0x000009cc:    7086        .p      STRB     r6,[r0,#2]
        0x000009ce:    684e        Nh      LDR      r6,[r1,#4]
        0x000009d0:    6202        .b      STR      r2,[r0,#0x20]
        0x000009d2:    f8808000    ....    STRB     r8,[r0,#0]
        0x000009d6:    61c1        .a      STR      r1,[r0,#0x1c]
        0x000009d8:    f8c08028    ..(.    STR      r8,[r0,#0x28]
        0x000009dc:    b916        ..      CBNZ     r6,0x9e4 ; R_SCI_UART_Open + 84
        0x000009de:    f0430302    C...    ORR      r3,r3,#2
        0x000009e2:    7083        .p      STRB     r3,[r0,#2]
        0x000009e4:    6acf        .j      LDR      r7,[r1,#0x2c]
        0x000009e6:    f24e1c00    N...    MOVW     r12,#0xe100
        0x000009ea:    f007031f    ....    AND      r3,r7,#0x1f
        0x000009ee:    f04f0e01    O...    MOV      lr,#1
        0x000009f2:    f2ce0c00    ....    MOVT     r12,#0xe000
        0x000009f6:    fa0ef303    ....    LSL      r3,lr,r3
        0x000009fa:    f10c0480    ....    ADD      r4,r12,#0x80
        0x000009fe:    097e        ~.      LSRS     r6,r7,#5
        0x00000a00:    f8915028    ..(P    LDRB     r5,[r1,#0x28]
        0x00000a04:    f8443026    D.&0    STR      r3,[r4,r6,LSL #2]
        0x00000a08:    f3bf8f4f    ..O.    DSB      
        0x00000a0c:    f2463a00    F..:    MOVW     r10,#0x6300
        0x00000a10:    f2c40a00    ....    MOVT     r10,#0x4000
        0x00000a14:    f3bf8f6f    ..o.    ISB      
        0x00000a18:    f85a6027    Z.'`    LDR      r6,[r10,r7,LSL #2]
        0x00000a1c:    012a        *.      LSLS     r2,r5,#4
        0x00000a1e:    f4263680    &..6    BIC      r6,r6,#0x10000
        0x00000a22:    f84a6027    J.'`    STR      r6,[r10,r7,LSL #2]
        0x00000a26:    f50c7540    ..@u    ADD      r5,r12,#0x300
        0x00000a2a:    f85a6027    Z.'`    LDR      r6,[r10,r7,LSL #2]
        0x00000a2e:    55ea        .U      STRB     r2,[r5,r7]
        0x00000a30:    694a        Ji      LDR      r2,[r1,#0x14]
        0x00000a32:    f240596c    @.lY    MOV      r9,#0x56c
        0x00000a36:    f002061f    ....    AND      r6,r2,#0x1f
        0x00000a3a:    f2c20900    ....    MOVT     r9,#0x2000
        0x00000a3e:    fa0ef606    ....    LSL      r6,lr,r6
        0x00000a42:    0953        S.      LSRS     r3,r2,#5
        0x00000a44:    f8490027    I.'.    STR      r0,[r9,r7,LSL #2]
        0x00000a48:    7c0f        .|      LDRB     r7,[r1,#0x10]
        0x00000a4a:    f8446023    D.#`    STR      r6,[r4,r3,LSL #2]
        0x00000a4e:    f3bf8f4f    ..O.    DSB      
        0x00000a52:    f3bf8f6f    ..o.    ISB      
        0x00000a56:    f85a3022    Z."0    LDR      r3,[r10,r2,LSL #2]
        0x00000a5a:    013e        >.      LSLS     r6,r7,#4
        0x00000a5c:    f4233380    #..3    BIC      r3,r3,#0x10000
        0x00000a60:    f84a3022    J."0    STR      r3,[r10,r2,LSL #2]
        0x00000a64:    f85a3022    Z."0    LDR      r3,[r10,r2,LSL #2]
        0x00000a68:    54ae        .T      STRB     r6,[r5,r2]
        0x00000a6a:    f8490022    I.".    STR      r0,[r9,r2,LSL #2]
        0x00000a6e:    69ca        .i      LDR      r2,[r1,#0x1c]
        0x00000a70:    7e0b        .~      LDRB     r3,[r1,#0x18]
        0x00000a72:    f002061f    ....    AND      r6,r2,#0x1f
        0x00000a76:    fa0ef606    ....    LSL      r6,lr,r6
        0x00000a7a:    0957        W.      LSRS     r7,r2,#5
        0x00000a7c:    f8446027    D.'`    STR      r6,[r4,r7,LSL #2]
        0x00000a80:    f3bf8f4f    ..O.    DSB      
        0x00000a84:    f3bf8f6f    ..o.    ISB      
        0x00000a88:    f85a6022    Z."`    LDR      r6,[r10,r2,LSL #2]
        0x00000a8c:    011b        ..      LSLS     r3,r3,#4
        0x00000a8e:    f4263680    &..6    BIC      r6,r6,#0x10000
        0x00000a92:    f84a6022    J."`    STR      r6,[r10,r2,LSL #2]
        0x00000a96:    f85a6022    Z."`    LDR      r6,[r10,r2,LSL #2]
        0x00000a9a:    54ab        .T      STRB     r3,[r5,r2]
        0x00000a9c:    f8490022    I.".    STR      r0,[r9,r2,LSL #2]
        0x00000aa0:    6a4a        Jj      LDR      r2,[r1,#0x24]
        0x00000aa2:    f8913020    .. 0    LDRB     r3,[r1,#0x20]
        0x00000aa6:    f002061f    ....    AND      r6,r2,#0x1f
        0x00000aaa:    fa0ef606    ....    LSL      r6,lr,r6
        0x00000aae:    0957        W.      LSRS     r7,r2,#5
        0x00000ab0:    f8446027    D.'`    STR      r6,[r4,r7,LSL #2]
        0x00000ab4:    f3bf8f4f    ..O.    DSB      
        0x00000ab8:    f3bf8f6f    ..o.    ISB      
        0x00000abc:    f85a4022    Z."@    LDR      r4,[r10,r2,LSL #2]
        0x00000ac0:    011b        ..      LSLS     r3,r3,#4
        0x00000ac2:    f4243480    $..4    BIC      r4,r4,#0x10000
        0x00000ac6:    f84a4022    J."@    STR      r4,[r10,r2,LSL #2]
        0x00000aca:    f85a4022    Z."@    LDR      r4,[r10,r2,LSL #2]
        0x00000ace:    54ab        .T      STRB     r3,[r5,r2]
        0x00000ad0:    f8490022    I.".    STR      r0,[r9,r2,LSL #2]
        0x00000ad4:    f3ef8210    ....    MRS      r2,PRIMASK
        0x00000ad8:    f38e8810    ....    MSR      PRIMASK,lr
        0x00000adc:    f2440504    D...    MOV      r5,#0x4004
        0x00000ae0:    780b        .x      LDRB     r3,[r1,#0]
        0x00000ae2:    f2c40508    ....    MOVT     r5,#0x4008
        0x00000ae6:    f04f4400    O..D    MOV      r4,#0x80000000
        0x00000aea:    682e        .h      LDR      r6,[r5,#0]
        0x00000aec:    fa24f303    $...    LSR      r3,r4,r3
        0x00000af0:    ea260303    &...    BIC      r3,r6,r3
        0x00000af4:    602b        +`      STR      r3,[r5,#0]
        0x00000af6:    682b        +h      LDR      r3,[r5,#0]
        0x00000af8:    f3828810    ....    MSR      PRIMASK,r2
        0x00000afc:    6a02        .j      LDR      r2,[r0,#0x20]
        0x00000afe:    f8828002    ....    STRB     r8,[r2,#2]
        0x00000b02:    6a02        .j      LDR      r2,[r0,#0x20]
        0x00000b04:    f8828004    ....    STRB     r8,[r2,#4]
        0x00000b08:    6a02        .j      LDR      r2,[r0,#0x20]
        0x00000b0a:    f8828009    ....    STRB     r8,[r2,#9]
        0x00000b0e:    6a02        .j      LDR      r2,[r0,#0x20]
        0x00000b10:    f882800a    ....    STRB     r8,[r2,#0xa]
        0x00000b14:    6a02        .j      LDR      r2,[r0,#0x20]
        0x00000b16:    f882800b    ....    STRB     r8,[r2,#0xb]
        0x00000b1a:    6a02        .j      LDR      r2,[r0,#0x20]
        0x00000b1c:    f8a2801a    ....    STRH     r8,[r2,#0x1a]
        0x00000b20:    780a        .x      LDRB     r2,[r1,#0]
        0x00000b22:    fa0ef302    ....    LSL      r3,lr,r2
        0x00000b26:    f24032f9    @..2    MOV      r2,#0x3f9
        0x00000b2a:    4213        .B      TST      r3,r2
        0x00000b2c:    d002        ..      BEQ      0xb34 ; R_SCI_UART_Open + 420
        0x00000b2e:    6a03        .j      LDR      r3,[r0,#0x20]
        0x00000b30:    2440        @$      MOVS     r4,#0x40
        0x00000b32:    74dc        .t      STRB     r4,[r3,#0x13]
        0x00000b34:    6a03        .j      LDR      r3,[r0,#0x20]
        0x00000b36:    2406        .$      MOVS     r4,#6
        0x00000b38:    771c        .w      STRB     r4,[r3,#0x1c]
        0x00000b3a:    780b        .x      LDRB     r3,[r1,#0]
        0x00000b3c:    fa0ef303    ....    LSL      r3,lr,r3
        0x00000b40:    4213        .B      TST      r3,r2
        0x00000b42:    d003        ..      BEQ      0xb4c ; R_SCI_UART_Open + 444
        0x00000b44:    6a02        .j      LDR      r2,[r0,#0x20]
        0x00000b46:    f44f4378    O.xC    MOV      r3,#0xf800
        0x00000b4a:    8293        ..      STRH     r3,[r2,#0x14]
        0x00000b4c:    e9d16301    ...c    LDRD     r6,r3,[r1,#4]
        0x00000b50:    68ca        .h      LDR      r2,[r1,#0xc]
        0x00000b52:    ea4f02c2    O...    LSL      r2,r2,#3
        0x00000b56:    ea421203    B...    ORR      r2,r2,r3,LSL #4
        0x00000b5a:    b13e        >.      CBZ      r6,0xb6c ; R_SCI_UART_Open + 476
        0x00000b5c:    2e03        ..      CMP      r6,#3
        0x00000b5e:    bf08        ..      IT       EQ
        0x00000b60:    f0420240    B.@.    ORREQ    r2,r2,#0x40
        0x00000b64:    26f2        .&      MOVS     r6,#0xf2
        0x00000b66:    e002        ..      B        0xb6e ; R_SCI_UART_Open + 478
        0x00000b68:    2203        ."      MOVS     r2,#3
        0x00000b6a:    e0ad        ..      B        0xcc8 ; R_SCI_UART_Open + 824
        0x00000b6c:    26e2        .&      MOVS     r6,#0xe2
        0x00000b6e:    6a03        .j      LDR      r3,[r0,#0x20]
        0x00000b70:    2702        .'      MOVS     r7,#2
        0x00000b72:    701a        .p      STRB     r2,[r3,#0]
        0x00000b74:    6a02        .j      LDR      r2,[r0,#0x20]
        0x00000b76:    2500        .%      MOVS     r5,#0
        0x00000b78:    7196        .q      STRB     r6,[r2,#6]
        0x00000b7a:    6c0a        .l      LDR      r2,[r1,#0x40]
        0x00000b7c:    6993        .i      LDR      r3,[r2,#0x18]
        0x00000b7e:    ea070743    ..C.    AND      r7,r7,r3,LSL #1
        0x00000b82:    2b08        .+      CMP      r3,#8
        0x00000b84:    6a03        .j      LDR      r3,[r0,#0x20]
        0x00000b86:    bf08        ..      IT       EQ
        0x00000b88:    270a        .'      MOVEQ    r7,#0xa
        0x00000b8a:    735f        _s      STRB     r7,[r3,#0xd]
        0x00000b8c:    6a06        .j      LDR      r6,[r0,#0x20]
        0x00000b8e:    e9d23701    ...7    LDRD     r3,r7,[r2,#4]
        0x00000b92:    7235        5r      STRB     r5,[r6,#8]
        0x00000b94:    6816        .h      LDR      r6,[r2,#0]
        0x00000b96:    01db        ..      LSLS     r3,r3,#7
        0x00000b98:    f0260601    &...    BIC      r6,r6,#1
        0x00000b9c:    2e02        ..      CMP      r6,#2
        0x00000b9e:    b2de        ..      UXTB     r6,r3
        0x00000ba0:    f3671645    g.E.    BFI      r6,r7,#5,#1
        0x00000ba4:    d10a        ..      BNE      0xbbc ; R_SCI_UART_Open + 556
        0x00000ba6:    6a03        .j      LDR      r3,[r0,#0x20]
        0x00000ba8:    27ff        .'      MOVS     r7,#0xff
        0x00000baa:    705f        _p      STRB     r7,[r3,#1]
        0x00000bac:    6812        .h      LDR      r2,[r2,#0]
        0x00000bae:    2a02        .*      CMP      r2,#2
        0x00000bb0:    6a02        .j      LDR      r2,[r0,#0x20]
        0x00000bb2:    bf08        ..      IT       EQ
        0x00000bb4:    f0460610    F...    ORREQ    r6,r6,#0x10
        0x00000bb8:    71d6        .q      STRB     r6,[r2,#7]
        0x00000bba:    e017        ..      B        0xbec ; R_SCI_UART_Open + 604
        0x00000bbc:    6a03        .j      LDR      r3,[r0,#0x20]
        0x00000bbe:    71de        .q      STRB     r6,[r3,#7]
        0x00000bc0:    68d2        .h      LDR      r2,[r2,#0xc]
        0x00000bc2:    6a03        .j      LDR      r3,[r0,#0x20]
        0x00000bc4:    7897        .x      LDRB     r7,[r2,#2]
        0x00000bc6:    705f        _p      STRB     r7,[r3,#1]
        0x00000bc8:    7857        Wx      LDRB     r7,[r2,#1]
        0x00000bca:    781e        .x      LDRB     r6,[r3,#0]
        0x00000bcc:    f0070703    ....    AND      r7,r7,#3
        0x00000bd0:    f00606fc    ....    AND      r6,r6,#0xfc
        0x00000bd4:    4437        7D      ADD      r7,r7,r6
        0x00000bd6:    701f        .p      STRB     r7,[r3,#0]
        0x00000bd8:    78d7        .x      LDRB     r7,[r2,#3]
        0x00000bda:    749f        .t      STRB     r7,[r3,#0x12]
        0x00000bdc:    79df        .y      LDRB     r7,[r3,#7]
        0x00000bde:    7812        .x      LDRB     r2,[r2,#0]
        0x00000be0:    f00707a3    ....    AND      r7,r7,#0xa3
        0x00000be4:    f002025c    ..\.    AND      r2,r2,#0x5c
        0x00000be8:    443a        :D      ADD      r2,r2,r7
        0x00000bea:    71da        .q      STRB     r2,[r3,#7]
        0x00000bec:    2200        ."      MOVS     r2,#0
        0x00000bee:    69c3        .i      LDR      r3,[r0,#0x1c]
        0x00000bf0:    e9c02203    ..."    STRD     r2,r2,[r0,#0xc]
        0x00000bf4:    e9c02205    ..."    STRD     r2,r2,[r0,#0x14]
        0x00000bf8:    f8d1e040    ..@.    LDR      lr,[r1,#0x40]
        0x00000bfc:    695b        [i      LDR      r3,[r3,#0x14]
        0x00000bfe:    f89e1000    ....    LDRB     r1,[lr,#0]
        0x00000c02:    f85a4023    Z.#@    LDR      r4,[r10,r3,LSL #2]
        0x00000c06:    f003051f    ....    AND      r5,r3,#0x1f
        0x00000c0a:    f4243480    $..4    BIC      r4,r4,#0x10000
        0x00000c0e:    f84a4023    J.#@    STR      r4,[r10,r3,LSL #2]
        0x00000c12:    f85a4023    Z.#@    LDR      r4,[r10,r3,LSL #2]
        0x00000c16:    2401        .$      MOVS     r4,#1
        0x00000c18:    fa04f605    ....    LSL      r6,r4,r5
        0x00000c1c:    f50c75c0    ...u    ADD      r5,r12,#0x180
        0x00000c20:    095b        [.      LSRS     r3,r3,#5
        0x00000c22:    f3bf8f5f    .._.    DMB      
        0x00000c26:    f8456023    E.#`    STR      r6,[r5,r3,LSL #2]
        0x00000c2a:    f84c6023    L.#`    STR      r6,[r12,r3,LSL #2]
        0x00000c2e:    69c3        .i      LDR      r3,[r0,#0x1c]
        0x00000c30:    6adb        .j      LDR      r3,[r3,#0x2c]
        0x00000c32:    f85a6023    Z.#`    LDR      r6,[r10,r3,LSL #2]
        0x00000c36:    f4263680    &..6    BIC      r6,r6,#0x10000
        0x00000c3a:    f84a6023    J.#`    STR      r6,[r10,r3,LSL #2]
        0x00000c3e:    f85a6023    Z.#`    LDR      r6,[r10,r3,LSL #2]
        0x00000c42:    f003061f    ....    AND      r6,r3,#0x1f
        0x00000c46:    fa04f606    ....    LSL      r6,r4,r6
        0x00000c4a:    095b        [.      LSRS     r3,r3,#5
        0x00000c4c:    f3bf8f5f    .._.    DMB      
        0x00000c50:    f8456023    E.#`    STR      r6,[r5,r3,LSL #2]
        0x00000c54:    f84c6023    L.#`    STR      r6,[r12,r3,LSL #2]
        0x00000c58:    69c3        .i      LDR      r3,[r0,#0x1c]
        0x00000c5a:    69db        .i      LDR      r3,[r3,#0x1c]
        0x00000c5c:    f85a6023    Z.#`    LDR      r6,[r10,r3,LSL #2]
        0x00000c60:    f4263680    &..6    BIC      r6,r6,#0x10000
        0x00000c64:    f84a6023    J.#`    STR      r6,[r10,r3,LSL #2]
        0x00000c68:    f85a6023    Z.#`    LDR      r6,[r10,r3,LSL #2]
        0x00000c6c:    f003061f    ....    AND      r6,r3,#0x1f
        0x00000c70:    fa04f606    ....    LSL      r6,r4,r6
        0x00000c74:    095b        [.      LSRS     r3,r3,#5
        0x00000c76:    f3bf8f5f    .._.    DMB      
        0x00000c7a:    f8456023    E.#`    STR      r6,[r5,r3,LSL #2]
        0x00000c7e:    f84c6023    L.#`    STR      r6,[r12,r3,LSL #2]
        0x00000c82:    69c3        .i      LDR      r3,[r0,#0x1c]
        0x00000c84:    6a5b        [j      LDR      r3,[r3,#0x24]
        0x00000c86:    f85a6023    Z.#`    LDR      r6,[r10,r3,LSL #2]
        0x00000c8a:    f4263680    &..6    BIC      r6,r6,#0x10000
        0x00000c8e:    f84a6023    J.#`    STR      r6,[r10,r3,LSL #2]
        0x00000c92:    f85a6023    Z.#`    LDR      r6,[r10,r3,LSL #2]
        0x00000c96:    f003061f    ....    AND      r6,r3,#0x1f
        0x00000c9a:    40b4        .@      LSLS     r4,r4,r6
        0x00000c9c:    095b        [.      LSRS     r3,r3,#5
        0x00000c9e:    f3bf8f5f    .._.    DMB      
        0x00000ca2:    f8454023    E.#@    STR      r4,[r5,r3,LSL #2]
        0x00000ca6:    f84c4023    L.#@    STR      r4,[r12,r3,LSL #2]
        0x00000caa:    231c        .#      MOVS     r3,#0x1c
        0x00000cac:    6a07        .j      LDR      r7,[r0,#0x20]
        0x00000cae:    f363019f    c...    BFI      r1,r3,#2,#30
        0x00000cb2:    70b9        .p      STRB     r1,[r7,#2]
        0x00000cb4:    f8de1014    ....    LDR      r1,[lr,#0x14]
        0x00000cb8:    f6441355    D.U.    MOV      r3,#0x4955
        0x00000cbc:    f2c53343    ..C3    MOVT     r3,#0x5343
        0x00000cc0:    e9c03101    ...1    STRD     r3,r1,[r0,#4]
        0x00000cc4:    e8bd47f0    ...G    POP      {r4-r10,lr}
        0x00000cc8:    4610        .F      MOV      r0,r2
        0x00000cca:    4770        pG      BX       lr
    R_SCI_UART_Read
        0x00000ccc:    4603        .F      MOV      r3,r0
        0x00000cce:    2000        .       MOVS     r0,#0
        0x00000cd0:    e9c31205    ....    STRD     r1,r2,[r3,#0x14]
        0x00000cd4:    4770        pG      BX       lr
    R_SCI_UART_ReadStop
        0x00000cd6:    4602        .F      MOV      r2,r0
        0x00000cd8:    6980        .i      LDR      r0,[r0,#0x18]
        0x00000cda:    6008        .`      STR      r0,[r1,#0]
        0x00000cdc:    2100        .!      MOVS     r1,#0
        0x00000cde:    2000        .       MOVS     r0,#0
        0x00000ce0:    6191        .a      STR      r1,[r2,#0x18]
        0x00000ce2:    4770        pG      BX       lr
    R_SCI_UART_ReceiveResume
        0x00000ce4:    2006        .       MOVS     r0,#6
        0x00000ce6:    4770        pG      BX       lr
    R_SCI_UART_ReceiveSuspend
        0x00000ce8:    2006        .       MOVS     r0,#6
        0x00000cea:    4770        pG      BX       lr
    R_SCI_UART_Write
        0x00000cec:    b580        ..      PUSH     {r7,lr}
        0x00000cee:    f8d0e020    .. .    LDR      lr,[r0,#0x20]
        0x00000cf2:    f89ec002    ....    LDRB     r12,[lr,#2]
        0x00000cf6:    f00c037b    ..{.    AND      r3,r12,#0x7b
        0x00000cfa:    f88e3002    ...0    STRB     r3,[lr,#2]
        0x00000cfe:    7883        .x      LDRB     r3,[r0,#2]
        0x00000d00:    f0030303    ....    AND      r3,r3,#3
        0x00000d04:    eba20c03    ....    SUB      r12,r2,r3
        0x00000d08:    440b        .D      ADD      r3,r3,r1
        0x00000d0a:    6a02        .j      LDR      r2,[r0,#0x20]
        0x00000d0c:    e9c03c03    ...<    STRD     r3,r12,[r0,#0xc]
        0x00000d10:    7893        .x      LDRB     r3,[r2,#2]
        0x00000d12:    f0430380    C...    ORR      r3,r3,#0x80
        0x00000d16:    7093        .p      STRB     r3,[r2,#2]
        0x00000d18:    7882        .x      LDRB     r2,[r0,#2]
        0x00000d1a:    f0020203    ....    AND      r2,r2,#3
        0x00000d1e:    2a02        .*      CMP      r2,#2
        0x00000d20:    d105        ..      BNE      0xd2e ; R_SCI_UART_Write + 66
        0x00000d22:    8809        ..      LDRH     r1,[r1,#0]
        0x00000d24:    6a00        .j      LDR      r0,[r0,#0x20]
        0x00000d26:    f441417e    A.~A    ORR      r1,r1,#0xfe00
        0x00000d2a:    81c1        ..      STRH     r1,[r0,#0xe]
        0x00000d2c:    e002        ..      B        0xd34 ; R_SCI_UART_Write + 72
        0x00000d2e:    7809        .x      LDRB     r1,[r1,#0]
        0x00000d30:    6a00        .j      LDR      r0,[r0,#0x20]
        0x00000d32:    70c1        .p      STRB     r1,[r0,#3]
        0x00000d34:    2000        .       MOVS     r0,#0
        0x00000d36:    bd80        ..      POP      {r7,pc}
    Reset_Handler
        0x00000d38:    f000f83a    ..:.    BL       SystemInit ; 0xdb0
        0x00000d3c:    f000feff    ....    BL       main ; 0x1b3e
        0x00000d40:    e7fe        ..      B        0xd40 ; Reset_Handler + 8
        0x00000d42:    0000        ..      MOVS     r0,r0
    SVC_Handler
        0x00000d44:    f01e0f04    ....    TST      lr,#4
        0x00000d48:    bf0c        ..      ITE      EQ
        0x00000d4a:    f3ef8008    ....    MRSEQ    r0,MSP
        0x00000d4e:    f3ef8009    ....    MRSNE    r0,PSP
        0x00000d52:    4901        .I      LDR      r1,[pc,#4] ; [0xd58] = 0x26ad
        0x00000d54:    4708        .G      BX       r1
        0x00000d56:    0000        ..      MOVS     r0,r0
    $d
        0x00000d58:    000026ad    .&..    DCD    9901
    $t
    SysTick_Handler
        0x00000d5c:    b510        ..      PUSH     {r4,lr}
        0x00000d5e:    2010        .       MOVS     r0,#0x10
        0x00000d60:    f3ef8411    ....    MRS      r4,BASEPRI
        0x00000d64:    f3808811    ....    MSR      BASEPRI,r0
        0x00000d68:    f002fb62    ..b.    BL       xTaskIncrementTick ; 0x3430
        0x00000d6c:    b130        0.      CBZ      r0,0xd7c ; SysTick_Handler + 32
        0x00000d6e:    f64e5004    N..P    MOV      r0,#0xed04
        0x00000d72:    f2ce0000    ....    MOVT     r0,#0xe000
        0x00000d76:    f04f5180    O..Q    MOV      r1,#0x10000000
        0x00000d7a:    6001        .`      STR      r1,[r0,#0]
        0x00000d7c:    f3848811    ....    MSR      BASEPRI,r4
        0x00000d80:    bd10        ..      POP      {r4,pc}
    SystemCoreClockUpdate
        0x00000d82:    f24e0020    N. .    MOV      r0,#0xe020
        0x00000d86:    f2c40001    ....    MOVT     r0,#0x4001
        0x00000d8a:    7981        .y      LDRB     r1,[r0,#6]
        0x00000d8c:    6800        .h      LDR      r0,[r0,#0]
        0x00000d8e:    f2404220    @. B    MOVW     r2,#0x420
        0x00000d92:    f2c20200    ....    MOVT     r2,#0x2000
        0x00000d96:    f3c06002    ...`    UBFX     r0,r0,#24,#3
        0x00000d9a:    f8521021    R.!.    LDR      r1,[r2,r1,LSL #2]
        0x00000d9e:    fa21f000    !...    LSR      r0,r1,r0
        0x00000da2:    f240413c    @.<A    MOV      r1,#0x43c
        0x00000da6:    f2c20100    ....    MOVT     r1,#0x2000
        0x00000daa:    6008        .`      STR      r0,[r1,#0]
        0x00000dac:    4770        pG      BX       lr
        0x00000dae:    0000        ..      MOVS     r0,r0
    SystemInit
        0x00000db0:    b510        ..      PUSH     {r4,lr}
        0x00000db2:    f64e5008    N..P    MOV      r0,#0xed08
        0x00000db6:    f2ce0000    ....    MOVT     r0,#0xe000
        0x00000dba:    f44f0170    O.p.    MOV      r1,#0xf00000
        0x00000dbe:    f8c01080    ....    STR      r1,[r0,#0x80]
        0x00000dc2:    f2400100    @...    MOVW     r1,#0
        0x00000dc6:    f2c00100    ....    MOVT     r1,#0
        0x00000dca:    6001        .`      STR      r1,[r0,#0]
        0x00000dcc:    2000        .       MOVS     r0,#0
        0x00000dce:    2400        .$      MOVS     r4,#0
        0x00000dd0:    f7fffc3c    ..<.    BL       R_BSP_WarmStart ; 0x64c
        0x00000dd4:    f000f870    ..p.    BL       bsp_clock_init ; 0xeb8
        0x00000dd8:    2001        .       MOVS     r0,#1
        0x00000dda:    f7fffc37    ..7.    BL       R_BSP_WarmStart ; 0x64c
        0x00000dde:    f2400020    @. .    MOVW     r0,#0x20
        0x00000de2:    f2c20000    ....    MOVT     r0,#0x2000
        0x00000de6:    f380880a    ....    MSR      MSPLIM,r0
        0x00000dea:    2000        .       MOVS     r0,#0
        0x00000dec:    f000f832    ..2.    BL       SystemRuntimeInit ; 0xe54
        0x00000df0:    f7ffffc7    ....    BL       SystemCoreClockUpdate ; 0xd82
        0x00000df4:    f7fffb5a    ..Z.    BL       R_BSP_Init_RTC ; 0x4ac
        0x00000df8:    2003        .       MOVS     r0,#3
        0x00000dfa:    f7fffb94    ....    BL       R_BSP_RegisterProtectDisable ; 0x526
        0x00000dfe:    f6405010    @..P    MOVW     r0,#0xd10
        0x00000e02:    f2c40008    ....    MOVT     r0,#0x4008
        0x00000e06:    f64f71ff    O..q    MOV      r1,#0xffff
        0x00000e0a:    bf00        ..      NOP      
        0x00000e0c:    f8201014     ...    STRH     r1,[r0,r4,LSL #1]
        0x00000e10:    3401        .4      ADDS     r4,#1
        0x00000e12:    2c0c        .,      CMP      r4,#0xc
        0x00000e14:    d1fa        ..      BNE      0xe0c ; SystemInit + 92
        0x00000e16:    2003        .       MOVS     r0,#3
        0x00000e18:    f7fffbac    ....    BL       R_BSP_RegisterProtectEnable ; 0x574
        0x00000e1c:    2003        .       MOVS     r0,#3
        0x00000e1e:    f7fffb82    ....    BL       R_BSP_RegisterProtectDisable ; 0x526
        0x00000e22:    2004        .       MOVS     r0,#4
        0x00000e24:    f2c4000e    ....    MOVT     r0,#0x400e
        0x00000e28:    2100        .!      MOVS     r1,#0
        0x00000e2a:    6001        .`      STR      r1,[r0,#0]
        0x00000e2c:    6041        A`      STR      r1,[r0,#4]
        0x00000e2e:    6081        .`      STR      r1,[r0,#8]
        0x00000e30:    60c1        .`      STR      r1,[r0,#0xc]
        0x00000e32:    2003        .       MOVS     r0,#3
        0x00000e34:    f7fffb9e    ....    BL       R_BSP_RegisterProtectEnable ; 0x574
        0x00000e38:    2002        .       MOVS     r0,#2
        0x00000e3a:    f7fffc07    ....    BL       R_BSP_WarmStart ; 0x64c
        0x00000e3e:    2001        .       MOVS     r0,#1
        0x00000e40:    f000f808    ....    BL       SystemRuntimeInit ; 0xe54
        0x00000e44:    f000f8d8    ....    BL       bsp_irq_cfg ; 0xff8
        0x00000e48:    2000        .       MOVS     r0,#0
        0x00000e4a:    e8bd4010    ...@    POP      {r4,lr}
        0x00000e4e:    f000b8d1    ....    B.W      bsp_init ; 0xff4
        0x00000e52:    0000        ..      MOVS     r0,r0
    SystemRuntimeInit
        0x00000e54:    b5f0        ..      PUSH     {r4-r7,lr}
        0x00000e56:    b081        ..      SUB      sp,sp,#4
        0x00000e58:    f24405c0    D...    MOV      r5,#0x40c0
        0x00000e5c:    f2c00500    ....    MOVT     r5,#0
        0x00000e60:    682e        .h      LDR      r6,[r5,#0]
        0x00000e62:    4604        .F      MOV      r4,r0
        0x00000e64:    b176        v.      CBZ      r6,0xe84 ; SystemRuntimeInit + 48
        0x00000e66:    6868        hh      LDR      r0,[r5,#4]
        0x00000e68:    1d07        ..      ADDS     r7,r0,#4
        0x00000e6a:    bf00        ..      NOP      
        0x00000e6c:    7978        xy      LDRB     r0,[r7,#5]
        0x00000e6e:    4284        .B      CMP      r4,r0
        0x00000e70:    d104        ..      BNE      0xe7c ; SystemRuntimeInit + 40
        0x00000e72:    e9570101    W...    LDRD     r0,r1,[r7,#-4]
        0x00000e76:    1a09        ..      SUBS     r1,r1,r0
        0x00000e78:    f7fff91f    ....    BL       __aeabi_memclr ; 0xba
        0x00000e7c:    3e01        .>      SUBS     r6,#1
        0x00000e7e:    f107070c    ....    ADD      r7,r7,#0xc
        0x00000e82:    d1f3        ..      BNE      0xe6c ; SystemRuntimeInit + 24
        0x00000e84:    68ae        .h      LDR      r6,[r5,#8]
        0x00000e86:    b186        ..      CBZ      r6,0xeaa ; SystemRuntimeInit + 86
        0x00000e88:    68e8        .h      LDR      r0,[r5,#0xc]
        0x00000e8a:    f1000508    ....    ADD      r5,r0,#8
        0x00000e8e:    bf00        ..      NOP      
        0x00000e90:    7968        hy      LDRB     r0,[r5,#5]
        0x00000e92:    4284        .B      CMP      r4,r0
        0x00000e94:    d105        ..      BNE      0xea2 ; SystemRuntimeInit + 78
        0x00000e96:    e9550202    U...    LDRD     r0,r2,[r5,#-8]
        0x00000e9a:    6829        )h      LDR      r1,[r5,#0]
        0x00000e9c:    1a12        ..      SUBS     r2,r2,r0
        0x00000e9e:    f7fff8f3    ....    BL       __aeabi_memcpy ; 0x88
        0x00000ea2:    3e01        .>      SUBS     r6,#1
        0x00000ea4:    f1050510    ....    ADD      r5,r5,#0x10
        0x00000ea8:    d1f2        ..      BNE      0xe90 ; SystemRuntimeInit + 60
        0x00000eaa:    b001        ..      ADD      sp,sp,#4
        0x00000eac:    bdf0        ..      POP      {r4-r7,pc}
        0x00000eae:    0000        ..      MOVS     r0,r0
    __aeabi_assert
        0x00000eb0:    be00        ..      BKPT     #0
        0x00000eb2:    bf00        ..      NOP      
        0x00000eb4:    e7fe        ..      B        0xeb4 ; __aeabi_assert + 4
        0x00000eb6:    0000        ..      MOVS     r0,r0
    bsp_clock_init
        0x00000eb8:    e92d41f0    -..A    PUSH     {r4-r8,lr}
        0x00000ebc:    f24e34fe    N..4    MOV      r4,#0xe3fe
        0x00000ec0:    f2c40401    ....    MOVT     r4,#0x4001
        0x00000ec4:    f24a5003    J..P    MOV      r0,#0xa503
        0x00000ec8:    f24c1500    L...    MOVW     r5,#0xc100
        0x00000ecc:    8020         .      STRH     r0,[r4,#0]
        0x00000ece:    f2c40501    ....    MOVT     r5,#0x4001
        0x00000ed2:    2001        .       MOVS     r0,#1
        0x00000ed4:    80a8        ..      STRH     r0,[r5,#4]
        0x00000ed6:    bf00        ..      NOP      
        0x00000ed8:    88a8        ..      LDRH     r0,[r5,#4]
        0x00000eda:    2800        .(      CMP      r0,#0
        0x00000edc:    d1fc        ..      BNE      0xed8 ; bsp_clock_init + 32
        0x00000ede:    f2470100    G...    MOVW     r1,#0x7000
        0x00000ee2:    2001        .       MOVS     r0,#1
        0x00000ee4:    f2c40100    ....    MOVT     r1,#0x4000
        0x00000ee8:    8028        (.      STRH     r0,[r5,#0]
        0x00000eea:    6088        .`      STR      r0,[r1,#8]
        0x00000eec:    6008        .`      STR      r0,[r1,#0]
        0x00000eee:    f2404620    @. F    MOVW     r6,#0x420
        0x00000ef2:    f6425000    B..P    MOVW     r0,#0x2d00
        0x00000ef6:    f2412200    A.."    MOVW     r2,#0x1200
        0x00000efa:    f2c20600    ....    MOVT     r6,#0x2000
        0x00000efe:    f2c01031    ..1.    MOVT     r0,#0x131
        0x00000f02:    f2c0027a    ..z.    MOVT     r2,#0x7a
        0x00000f06:    e9c60200    ....    STRD     r0,r2,[r6,#0]
        0x00000f0a:    f2436000    C..`    MOVW     r0,#0x3600
        0x00000f0e:    f44f4100    O..A    MOV      r1,#0x8000
        0x00000f12:    f2c0106e    ..n.    MOVT     r0,#0x16e
        0x00000f16:    e9c61002    ....    STRD     r1,r0,[r6,#8]
        0x00000f1a:    f24c2000    L..     MOVW     r0,#0xc200
        0x00000f1e:    f6c030eb    ...0    MOVT     r0,#0xbeb
        0x00000f22:    f24e0720    N. .    MOV      r7,#0xe020
        0x00000f26:    6131        1a      STR      r1,[r6,#0x10]
        0x00000f28:    f2c40701    ....    MOVT     r7,#0x4001
        0x00000f2c:    6170        pa      STR      r0,[r6,#0x14]
        0x00000f2e:    79b8        .y      LDRB     r0,[r7,#6]
        0x00000f30:    6839        9h      LDR      r1,[r7,#0]
        0x00000f32:    f8560020    V. .    LDR      r0,[r6,r0,LSL #2]
        0x00000f36:    f3c16102    ...a    UBFX     r1,r1,#24,#3
        0x00000f3a:    f240483c    @.<H    MOV      r8,#0x43c
        0x00000f3e:    40c8        .@      LSRS     r0,r0,r1
        0x00000f40:    f2c20800    ....    MOVT     r8,#0x2000
        0x00000f44:    f8c80000    ....    STR      r0,[r8,#0]
        0x00000f48:    2000        .       MOVS     r0,#0
        0x00000f4a:    7560        `u      STRB     r0,[r4,#0x15]
        0x00000f4c:    2009        .       MOVS     r0,#9
        0x00000f4e:    f8870082    ....    STRB     r0,[r7,#0x82]
        0x00000f52:    f8940082    ....    LDRB     r0,[r4,#0x82]
        0x00000f56:    b918        ..      CBNZ     r0,0xf60 ; bsp_clock_init + 168
        0x00000f58:    f8940083    ....    LDRB     r0,[r4,#0x83]
        0x00000f5c:    0780        ..      LSLS     r0,r0,#30
        0x00000f5e:    d044        D.      BEQ      0xfea ; bsp_clock_init + 306
        0x00000f60:    f8940082    ....    LDRB     r0,[r4,#0x82]
        0x00000f64:    b950        P.      CBNZ     r0,0xf7c ; bsp_clock_init + 196
        0x00000f66:    2001        .       MOVS     r0,#1
        0x00000f68:    f8840082    ....    STRB     r0,[r4,#0x82]
        0x00000f6c:    20c8        .       MOVS     r0,#0xc8
        0x00000f6e:    2101        .!      MOVS     r1,#1
        0x00000f70:    f7fffb29    ..).    BL       R_BSP_SoftwareDelay ; 0x5c6
        0x00000f74:    f8940082    ....    LDRB     r0,[r4,#0x82]
        0x00000f78:    2801        .(      CMP      r0,#1
        0x00000f7a:    d1fb        ..      BNE      0xf74 ; bsp_clock_init + 188
        0x00000f7c:    2000        .       MOVS     r0,#0
        0x00000f7e:    f8840083    ....    STRB     r0,[r4,#0x83]
        0x00000f82:    f8840082    ....    STRB     r0,[r4,#0x82]
        0x00000f86:    2000        .       MOVS     r0,#0
        0x00000f88:    74b8        .t      STRB     r0,[r7,#0x12]
        0x00000f8a:    bf00        ..      NOP      
        0x00000f8c:    7f38        8.      LDRB     r0,[r7,#0x1c]
        0x00000f8e:    0700        ..      LSLS     r0,r0,#28
        0x00000f90:    d5fc        ..      BPL      0xf8c ; bsp_clock_init + 212
        0x00000f92:    f2431002    C...    MOV      r0,#0x3102
        0x00000f96:    8138        8.      STRH     r0,[r7,#8]
        0x00000f98:    2000        .       MOVS     r0,#0
        0x00000f9a:    72b8        .r      STRB     r0,[r7,#0xa]
        0x00000f9c:    7f38        8.      LDRB     r0,[r7,#0x1c]
        0x00000f9e:    0680        ..      LSLS     r0,r0,#26
        0x00000fa0:    d5fc        ..      BPL      0xf9c ; bsp_clock_init + 228
        0x00000fa2:    2003        .       MOVS     r0,#3
        0x00000fa4:    7728        (w      STRB     r0,[r5,#0x1c]
        0x00000fa6:    f2412021    A.!     MOV      r0,#0x1221
        0x00000faa:    f2c20001    ....    MOVT     r0,#0x2001
        0x00000fae:    6038        8`      STR      r0,[r7,#0]
        0x00000fb0:    2005        .       MOVS     r0,#5
        0x00000fb2:    71b8        .q      STRB     r0,[r7,#6]
        0x00000fb4:    79b8        .y      LDRB     r0,[r7,#6]
        0x00000fb6:    6839        9h      LDR      r1,[r7,#0]
        0x00000fb8:    f8560020    V. .    LDR      r0,[r6,r0,LSL #2]
        0x00000fbc:    f3c16102    ...a    UBFX     r1,r1,#24,#3
        0x00000fc0:    22f0        ."      MOVS     r2,#0xf0
        0x00000fc2:    40c8        .@      LSRS     r0,r0,r1
        0x00000fc4:    f8c80000    ....    STR      r0,[r8,#0]
        0x00000fc8:    f2420008    B...    MOV      r0,#0x2008
        0x00000fcc:    f2c40000    ....    MOVT     r0,#0x4000
        0x00000fd0:    21f1        .!      MOVS     r1,#0xf1
        0x00000fd2:    7101        .q      STRB     r1,[r0,#4]
        0x00000fd4:    2101        .!      MOVS     r1,#1
        0x00000fd6:    7001        .p      STRB     r1,[r0,#0]
        0x00000fd8:    7102        .q      STRB     r2,[r0,#4]
        0x00000fda:    f44f4025    O.%@    MOV      r0,#0xa500
        0x00000fde:    7439        9t      STRB     r1,[r7,#0x10]
        0x00000fe0:    f8871032    ..2.    STRB     r1,[r7,#0x32]
        0x00000fe4:    8020         .      STRH     r0,[r4,#0]
        0x00000fe6:    e8bd81f0    ....    POP      {r4-r8,pc}
        0x00000fea:    f44f707a    O.zp    MOV      r0,#0x3e8
        0x00000fee:    f7fffb2c    ..,.    BL       R_BSP_SubClockStabilizeWaitAfterReset ; 0x64a
        0x00000ff2:    e7c8        ..      B        0xf86 ; bsp_clock_init + 206
    bsp_init
    bsp_init_internal
        0x00000ff4:    4770        pG      BX       lr
        0x00000ff6:    0000        ..      MOVS     r0,r0
    bsp_irq_cfg
        0x00000ff8:    b570        p.      PUSH     {r4-r6,lr}
        0x00000ffa:    b084        ..      SUB      sp,sp,#0x10
        0x00000ffc:    f2480648    H.H.    MOV      r6,#0x8048
        0x00001000:    2003        .       MOVS     r0,#3
        0x00001002:    f2c40600    ....    MOVT     r6,#0x4000
        0x00001006:    f7fffa8e    ....    BL       R_BSP_RegisterProtectDisable ; 0x526
        0x0000100a:    f06f00ff    o...    MVN      r0,#0xff
        0x0000100e:    f24404d8    D...    MOV      r4,#0x40d8
        0x00001012:    6030        0`      STR      r0,[r6,#0]
        0x00001014:    f04f30ff    O..0    MOV      r0,#0xffffffff
        0x00001018:    2100        .!      MOVS     r1,#0
        0x0000101a:    f2c00400    ....    MOVT     r4,#0
        0x0000101e:    2201        ."      MOVS     r2,#1
        0x00001020:    e9cd0002    ....    STRD     r0,r0,[sp,#8]
        0x00001024:    f8543021    T.!0    LDR      r3,[r4,r1,LSL #2]
        0x00001028:    fa02f501    ....    LSL      r5,r2,r1
        0x0000102c:    2b00        .+      CMP      r3,#0
        0x0000102e:    bf18        ..      IT       NE
        0x00001030:    43a8        .C      BICNE    r0,r0,r5
        0x00001032:    3101        .1      ADDS     r1,#1
        0x00001034:    2911        .)      CMP      r1,#0x11
        0x00001036:    d1f5        ..      BNE      0x1024 ; bsp_irq_cfg + 44
        0x00001038:    f24e3280    N..2    MOV      r2,#0xe380
        0x0000103c:    9001        ..      STR      r0,[sp,#4]
        0x0000103e:    2000        .       MOVS     r0,#0
        0x00001040:    a901        ..      ADD      r1,sp,#4
        0x00001042:    f2ce0200    ....    MOVT     r2,#0xe000
        0x00001046:    bf00        ..      NOP      
        0x00001048:    f8513020    Q. 0    LDR      r3,[r1,r0,LSL #2]
        0x0000104c:    eb060580    ....    ADD      r5,r6,r0,LSL #2
        0x00001050:    62ab        .b      STR      r3,[r5,#0x28]
        0x00001052:    f8423020    B. 0    STR      r3,[r2,r0,LSL #2]
        0x00001056:    3001        .0      ADDS     r0,#1
        0x00001058:    2803        .(      CMP      r0,#3
        0x0000105a:    d1f5        ..      BNE      0x1048 ; bsp_irq_cfg + 80
        0x0000105c:    2003        .       MOVS     r0,#3
        0x0000105e:    f7fffa89    ....    BL       R_BSP_RegisterProtectEnable ; 0x574
        0x00001062:    f2463100    F..1    MOVW     r1,#0x6300
        0x00001066:    2000        .       MOVS     r0,#0
        0x00001068:    f2c40100    ....    MOVT     r1,#0x4000
        0x0000106c:    f8542020    T.      LDR      r2,[r4,r0,LSL #2]
        0x00001070:    b10a        ..      CBZ      r2,0x1076 ; bsp_irq_cfg + 126
        0x00001072:    f8412020    A.      STR      r2,[r1,r0,LSL #2]
        0x00001076:    3001        .0      ADDS     r0,#1
        0x00001078:    2811        .(      CMP      r0,#0x11
        0x0000107a:    bf04        ..      ITT      EQ
        0x0000107c:    b004        ..      ADDEQ    sp,sp,#0x10
        0x0000107e:    bd70        p.      POPEQ    {r4-r6,pc}
        0x00001080:    e7f4        ..      B        0x106c ; bsp_irq_cfg + 116
    sw_delay_loop
    bsp_prv_software_delay_loop
        0x00001082:    3801        .8      SUBS     r0,#1
        0x00001084:    2800        .(      CMP      r0,#0
        0x00001086:    d1fc        ..      BNE      bsp_prv_software_delay_loop ; 0x1082
        0x00001088:    4770        pG      BX       lr
        0x0000108a:    0000        ..      MOVS     r0,r0
    bsp_vbatt_init
        0x0000108c:    e92d4ff0    -..O    PUSH     {r4-r11,lr}
        0x00001090:    b081        ..      SUB      sp,sp,#4
        0x00001092:    4604        .F      MOV      r4,r0
        0x00001094:    8800        ..      LDRH     r0,[r0,#0]
        0x00001096:    2800        .(      CMP      r0,#0
        0x00001098:    d05a        Z.      BEQ      0x1150 ; bsp_vbatt_init + 196
        0x0000109a:    f2430840    C.@.    MOVW     r8,#0x3040
        0x0000109e:    f24e4bbb    N..K    MOV      r11,#0xe4bb
        0x000010a2:    2500        .%      MOVS     r5,#0
        0x000010a4:    f2c40808    ....    MOVT     r8,#0x4008
        0x000010a8:    f20f0aac    ....    ADR.W    r10,{pc}+0xb0 ; 0x1158
        0x000010ac:    f2c40b01    ....    MOVT     r11,#0x4001
        0x000010b0:    f04f0901    O...    MOV      r9,#1
        0x000010b4:    2700        .'      MOVS     r7,#0
        0x000010b6:    bf00        ..      NOP      
        0x000010b8:    6860        `h      LDR      r0,[r4,#4]
        0x000010ba:    f85a2027    Z.'     LDR      r2,[r10,r7,LSL #2]
        0x000010be:    eb0000c5    ....    ADD      r0,r0,r5,LSL #3
        0x000010c2:    6841        Ah      LDR      r1,[r0,#4]
        0x000010c4:    4291        .B      CMP      r1,r2
        0x000010c6:    d13c        <.      BNE      0x1142 ; bsp_vbatt_init + 182
        0x000010c8:    6800        .h      LDR      r0,[r0,#0]
        0x000010ca:    f89b1000    ....    LDRB     r1,[r11,#0]
        0x000010ce:    f00050b8    ...P    AND      r0,r0,#0x17000000
        0x000010d2:    fa09f607    ....    LSL      r6,r9,r7
        0x000010d6:    f1b07f80    ....    CMP      r0,#0x1000000
        0x000010da:    ea060001    ....    AND      r0,r6,r1
        0x000010de:    d115        ..      BNE      0x110c ; bsp_vbatt_init + 128
        0x000010e0:    b950        P.      CBNZ     r0,0x10f8 ; bsp_vbatt_init + 108
        0x000010e2:    2001        .       MOVS     r0,#1
        0x000010e4:    f7fffa1f    ....    BL       R_BSP_RegisterProtectDisable ; 0x526
        0x000010e8:    f89b0000    ....    LDRB     r0,[r11,#0]
        0x000010ec:    4330        0C      ORRS     r0,r0,r6
        0x000010ee:    f88b0000    ....    STRB     r0,[r11,#0]
        0x000010f2:    2001        .       MOVS     r0,#1
        0x000010f4:    f7fffa3e    ..>.    BL       R_BSP_RegisterProtectEnable ; 0x574
        0x000010f8:    f9180017    ....    LDRSB    r0,[r8,r7,LSL #1]
        0x000010fc:    2800        .(      CMP      r0,#0
        0x000010fe:    d420         .      BMI      0x1142 ; bsp_vbatt_init + 182
        0x00001100:    f8180017    ....    LDRB     r0,[r8,r7,LSL #1]
        0x00001104:    f0400080    @...    ORR      r0,r0,#0x80
        0x00001108:    e015        ..      B        0x1136 ; bsp_vbatt_init + 170
        0x0000110a:    bf00        ..      NOP      
        0x0000110c:    b150        P.      CBZ      r0,0x1124 ; bsp_vbatt_init + 152
        0x0000110e:    2001        .       MOVS     r0,#1
        0x00001110:    f7fffa09    ....    BL       R_BSP_RegisterProtectDisable ; 0x526
        0x00001114:    f89b0000    ....    LDRB     r0,[r11,#0]
        0x00001118:    43b0        .C      BICS     r0,r0,r6
        0x0000111a:    f88b0000    ....    STRB     r0,[r11,#0]
        0x0000111e:    2001        .       MOVS     r0,#1
        0x00001120:    f7fffa28    ..(.    BL       R_BSP_RegisterProtectEnable ; 0x574
        0x00001124:    f9180017    ....    LDRSB    r0,[r8,r7,LSL #1]
        0x00001128:    f1b03fff    ...?    CMP      r0,#0xffffffff
        0x0000112c:    dc09        ..      BGT      0x1142 ; bsp_vbatt_init + 182
        0x0000112e:    f8180017    ....    LDRB     r0,[r8,r7,LSL #1]
        0x00001132:    f000007f    ....    AND      r0,r0,#0x7f
        0x00001136:    f8080017    ....    STRB     r0,[r8,r7,LSL #1]
        0x0000113a:    20c8        .       MOVS     r0,#0xc8
        0x0000113c:    2101        .!      MOVS     r1,#1
        0x0000113e:    f7fffa42    ..B.    BL       R_BSP_SoftwareDelay ; 0x5c6
        0x00001142:    3701        .7      ADDS     r7,#1
        0x00001144:    2f03        ./      CMP      r7,#3
        0x00001146:    d1b7        ..      BNE      0x10b8 ; bsp_vbatt_init + 44
        0x00001148:    8820         .      LDRH     r0,[r4,#0]
        0x0000114a:    3501        .5      ADDS     r5,#1
        0x0000114c:    4285        .B      CMP      r5,r0
        0x0000114e:    d3b1        ..      BCC      0x10b4 ; bsp_vbatt_init + 40
        0x00001150:    b001        ..      ADD      sp,sp,#4
        0x00001152:    e8bd8ff0    ....    POP      {r4-r11,pc}
        0x00001156:    bf00        ..      NOP      
    $d
    g_vbatt_pins_input
        0x00001158:    00000402    ....    DCD    1026
        0x0000115c:    00000403    ....    DCD    1027
        0x00001160:    00000404    ....    DCD    1028
    $t
    debug_init
        0x00001164:    f2441128    D.(.    MOV      r1,#0x4128
        0x00001168:    f2c00100    ....    MOVT     r1,#0
        0x0000116c:    c907        ..      LDM      r1,{r0-r2}
        0x0000116e:    6812        .h      LDR      r2,[r2,#0]
        0x00001170:    4710        .G      BX       r2
    g_common_init
        0x00001172:    4770        pG      BX       lr
    g_hal_init
        0x00001174:    f7ffbffd    ....    B.W      g_common_init ; 0x1172
    gpt_counter_overflow_isr
        0x00001178:    b510        ..      PUSH     {r4,lr}
        0x0000117a:    b084        ..      SUB      sp,sp,#0x10
        0x0000117c:    f3ef8103    ....    MRS      r1,XPSR
        0x00001180:    f2463e00    F..>    MOVW     lr,#0x6300
        0x00001184:    f36f215f    o._!    BFC      r1,#9,#23
        0x00001188:    f2c40e00    ....    MOVT     lr,#0x4000
        0x0000118c:    f1a10310    ....    SUB      r3,r1,#0x10
        0x00001190:    f85e1023    ^.#.    LDR      r1,[lr,r3,LSL #2]
        0x00001194:    f240526c    @.lR    MOV      r2,#0x56c
        0x00001198:    f4213180    !..1    BIC      r1,r1,#0x10000
        0x0000119c:    f84e1023    N.#.    STR      r1,[lr,r3,LSL #2]
        0x000011a0:    f2c20200    ....    MOVT     r2,#0x2000
        0x000011a4:    f85e1023    ^.#.    LDR      r1,[lr,r3,LSL #2]
        0x000011a8:    f8524023    R.#@    LDR      r4,[r2,r3,LSL #2]
        0x000011ac:    6861        ah      LDR      r1,[r4,#4]
        0x000011ae:    680a        .h      LDR      r2,[r1,#0]
        0x000011b0:    2a01        .*      CMP      r2,#1
        0x000011b2:    f04080a7    @...    BNE.W    0x1304 ; gpt_counter_overflow_isr + 396
        0x000011b6:    e9d42002    ...     LDRD     r2,r0,[r4,#8]
        0x000011ba:    6a09        .j      LDR      r1,[r1,#0x20]
        0x000011bc:    f24e2c80    N..,    MOV      r12,#0xe280
        0x000011c0:    f2ce0c00    ....    MOVT     r12,#0xe000
        0x000011c4:    6090        .`      STR      r0,[r2,#8]
        0x000011c6:    68a0        .h      LDR      r0,[r4,#8]
        0x000011c8:    2200        ."      MOVS     r2,#0
        0x000011ca:    6482        .d      STR      r2,[r0,#0x48]
        0x000011cc:    68a0        .h      LDR      r0,[r4,#8]
        0x000011ce:    64c2        .d      STR      r2,[r0,#0x4c]
        0x000011d0:    68a0        .h      LDR      r0,[r4,#8]
        0x000011d2:    6502        .e      STR      r2,[r0,#0x50]
        0x000011d4:    f85e0023    ^.#.    LDR      r0,[lr,r3,LSL #2]
        0x000011d8:    2201        ."      MOVS     r2,#1
        0x000011da:    f4203080     ..0    BIC      r0,r0,#0x10000
        0x000011de:    f84e0023    N.#.    STR      r0,[lr,r3,LSL #2]
        0x000011e2:    f85e0023    ^.#.    LDR      r0,[lr,r3,LSL #2]
        0x000011e6:    f003001f    ....    AND      r0,r3,#0x1f
        0x000011ea:    fa02f000    ....    LSL      r0,r2,r0
        0x000011ee:    095a        Z.      LSRS     r2,r3,#5
        0x000011f0:    f3bf8f5f    .._.    DMB      
        0x000011f4:    f84c0022    L.".    STR      r0,[r12,r2,LSL #2]
        0x000011f8:    f891306c    ..l0    LDRB     r3,[r1,#0x6c]
        0x000011fc:    07d8        ..      LSLS     r0,r3,#31
        0x000011fe:    d016        ..      BEQ      0x122e ; gpt_counter_overflow_isr + 182
        0x00001200:    6bca        .k      LDR      r2,[r1,#0x3c]
        0x00001202:    2a00        .*      CMP      r2,#0
        0x00001204:    d413        ..      BMI      0x122e ; gpt_counter_overflow_isr + 182
        0x00001206:    f85e0022    ^.".    LDR      r0,[lr,r2,LSL #2]
        0x0000120a:    2301        .#      MOVS     r3,#1
        0x0000120c:    f4203080     ..0    BIC      r0,r0,#0x10000
        0x00001210:    f84e0022    N.".    STR      r0,[lr,r2,LSL #2]
        0x00001214:    f85e0022    ^.".    LDR      r0,[lr,r2,LSL #2]
        0x00001218:    f002001f    ....    AND      r0,r2,#0x1f
        0x0000121c:    fa03f000    ....    LSL      r0,r3,r0
        0x00001220:    0952        R.      LSRS     r2,r2,#5
        0x00001222:    f3bf8f5f    .._.    DMB      
        0x00001226:    f84c0022    L.".    STR      r0,[r12,r2,LSL #2]
        0x0000122a:    f891306c    ..l0    LDRB     r3,[r1,#0x6c]
        0x0000122e:    0798        ..      LSLS     r0,r3,#30
        0x00001230:    d514        ..      BPL      0x125c ; gpt_counter_overflow_isr + 228
        0x00001232:    6c0a        .l      LDR      r2,[r1,#0x40]
        0x00001234:    2a00        .*      CMP      r2,#0
        0x00001236:    d411        ..      BMI      0x125c ; gpt_counter_overflow_isr + 228
        0x00001238:    f85e0022    ^.".    LDR      r0,[lr,r2,LSL #2]
        0x0000123c:    2301        .#      MOVS     r3,#1
        0x0000123e:    f4203080     ..0    BIC      r0,r0,#0x10000
        0x00001242:    f84e0022    N.".    STR      r0,[lr,r2,LSL #2]
        0x00001246:    f85e0022    ^.".    LDR      r0,[lr,r2,LSL #2]
        0x0000124a:    f002001f    ....    AND      r0,r2,#0x1f
        0x0000124e:    f3bf8f5f    .._.    DMB      
        0x00001252:    fa03f000    ....    LSL      r0,r3,r0
        0x00001256:    0952        R.      LSRS     r2,r2,#5
        0x00001258:    f84c0022    L.".    STR      r0,[r12,r2,LSL #2]
        0x0000125c:    6c4a        Jl      LDR      r2,[r1,#0x44]
        0x0000125e:    2a00        .*      CMP      r2,#0
        0x00001260:    d411        ..      BMI      0x1286 ; gpt_counter_overflow_isr + 270
        0x00001262:    f85e0022    ^.".    LDR      r0,[lr,r2,LSL #2]
        0x00001266:    2301        .#      MOVS     r3,#1
        0x00001268:    f4203080     ..0    BIC      r0,r0,#0x10000
        0x0000126c:    f84e0022    N.".    STR      r0,[lr,r2,LSL #2]
        0x00001270:    f85e0022    ^.".    LDR      r0,[lr,r2,LSL #2]
        0x00001274:    f002001f    ....    AND      r0,r2,#0x1f
        0x00001278:    f3bf8f5f    .._.    DMB      
        0x0000127c:    fa03f000    ....    LSL      r0,r3,r0
        0x00001280:    0952        R.      LSRS     r2,r2,#5
        0x00001282:    f84c0022    L.".    STR      r0,[r12,r2,LSL #2]
        0x00001286:    6c8a        .l      LDR      r2,[r1,#0x48]
        0x00001288:    2a00        .*      CMP      r2,#0
        0x0000128a:    d411        ..      BMI      0x12b0 ; gpt_counter_overflow_isr + 312
        0x0000128c:    f85e0022    ^.".    LDR      r0,[lr,r2,LSL #2]
        0x00001290:    2301        .#      MOVS     r3,#1
        0x00001292:    f4203080     ..0    BIC      r0,r0,#0x10000
        0x00001296:    f84e0022    N.".    STR      r0,[lr,r2,LSL #2]
        0x0000129a:    f85e0022    ^.".    LDR      r0,[lr,r2,LSL #2]
        0x0000129e:    f002001f    ....    AND      r0,r2,#0x1f
        0x000012a2:    f3bf8f5f    .._.    DMB      
        0x000012a6:    fa03f000    ....    LSL      r0,r3,r0
        0x000012aa:    0952        R.      LSRS     r2,r2,#5
        0x000012ac:    f84c0022    L.".    STR      r0,[r12,r2,LSL #2]
        0x000012b0:    6cca        .l      LDR      r2,[r1,#0x4c]
        0x000012b2:    2a00        .*      CMP      r2,#0
        0x000012b4:    d411        ..      BMI      0x12da ; gpt_counter_overflow_isr + 354
        0x000012b6:    f85e0022    ^.".    LDR      r0,[lr,r2,LSL #2]
        0x000012ba:    2301        .#      MOVS     r3,#1
        0x000012bc:    f4203080     ..0    BIC      r0,r0,#0x10000
        0x000012c0:    f84e0022    N.".    STR      r0,[lr,r2,LSL #2]
        0x000012c4:    f85e0022    ^.".    LDR      r0,[lr,r2,LSL #2]
        0x000012c8:    f002001f    ....    AND      r0,r2,#0x1f
        0x000012cc:    f3bf8f5f    .._.    DMB      
        0x000012d0:    fa03f000    ....    LSL      r0,r3,r0
        0x000012d4:    0952        R.      LSRS     r2,r2,#5
        0x000012d6:    f84c0022    L.".    STR      r0,[r12,r2,LSL #2]
        0x000012da:    6d09        .m      LDR      r1,[r1,#0x50]
        0x000012dc:    2900        .)      CMP      r1,#0
        0x000012de:    d411        ..      BMI      0x1304 ; gpt_counter_overflow_isr + 396
        0x000012e0:    f85e0021    ^.!.    LDR      r0,[lr,r1,LSL #2]
        0x000012e4:    2201        ."      MOVS     r2,#1
        0x000012e6:    f4203080     ..0    BIC      r0,r0,#0x10000
        0x000012ea:    f84e0021    N.!.    STR      r0,[lr,r1,LSL #2]
        0x000012ee:    f85e0021    ^.!.    LDR      r0,[lr,r1,LSL #2]
        0x000012f2:    f001001f    ....    AND      r0,r1,#0x1f
        0x000012f6:    f3bf8f5f    .._.    DMB      
        0x000012fa:    fa02f000    ....    LSL      r0,r2,r0
        0x000012fe:    0949        I.      LSRS     r1,r1,#5
        0x00001300:    f84c0021    L.!.    STR      r0,[r12,r1,LSL #2]
        0x00001304:    6961        ai      LDR      r1,[r4,#0x14]
        0x00001306:    b1a1        ..      CBZ      r1,0x1332 ; gpt_counter_overflow_isr + 442
        0x00001308:    69a0        .i      LDR      r0,[r4,#0x18]
        0x0000130a:    b130        0.      CBZ      r0,0x131a ; gpt_counter_overflow_isr + 418
        0x0000130c:    e9d0c200    ....    LDRD     r12,r2,[r0,#0]
        0x00001310:    6883        .h      LDR      r3,[r0,#8]
        0x00001312:    9303        ..      STR      r3,[sp,#0xc]
        0x00001314:    e9cdc201    ....    STRD     r12,r2,[sp,#4]
        0x00001318:    e000        ..      B        0x131c ; gpt_counter_overflow_isr + 420
        0x0000131a:    a801        ..      ADD      r0,sp,#4
        0x0000131c:    69e3        .i      LDR      r3,[r4,#0x1c]
        0x0000131e:    2200        ."      MOVS     r2,#0
        0x00001320:    6042        B`      STR      r2,[r0,#4]
        0x00001322:    6082        .`      STR      r2,[r0,#8]
        0x00001324:    6003        .`      STR      r3,[r0,#0]
        0x00001326:    4788        .G      BLX      r1
        0x00001328:    69a0        .i      LDR      r0,[r4,#0x18]
        0x0000132a:    b110        ..      CBZ      r0,0x1332 ; gpt_counter_overflow_isr + 442
        0x0000132c:    ab01        ..      ADD      r3,sp,#4
        0x0000132e:    cb0e        ..      LDM      r3,{r1-r3}
        0x00001330:    c00e        ..      STM      r0!,{r1-r3}
        0x00001332:    b004        ..      ADD      sp,sp,#0x10
        0x00001334:    bd10        ..      POP      {r4,pc}
    i2c2_callback
        0x00001336:    6840        @h      LDR      r0,[r0,#4]
        0x00001338:    2802        .(      CMP      r0,#2
        0x0000133a:    d006        ..      BEQ      0x134a ; i2c2_callback + 20
        0x0000133c:    2803        .(      CMP      r0,#3
        0x0000133e:    d10a        ..      BNE      0x1356 ; i2c2_callback + 32
        0x00001340:    f2404041    @.A@    MOV      r0,#0x441
        0x00001344:    f2c20000    ....    MOVT     r0,#0x2000
        0x00001348:    e003        ..      B        0x1352 ; i2c2_callback + 28
        0x0000134a:    f2404040    @.@@    MOVW     r0,#0x440
        0x0000134e:    f2c20000    ....    MOVT     r0,#0x2000
        0x00001352:    2101        .!      MOVS     r1,#1
        0x00001354:    e009        ..      B        0x136a ; i2c2_callback + 52
        0x00001356:    f2404040    @.@@    MOVW     r0,#0x440
        0x0000135a:    f2c20000    ....    MOVT     r0,#0x2000
        0x0000135e:    2100        .!      MOVS     r1,#0
        0x00001360:    7001        .p      STRB     r1,[r0,#0]
        0x00001362:    f2404041    @.A@    MOV      r0,#0x441
        0x00001366:    f2c20000    ....    MOVT     r0,#0x2000
        0x0000136a:    7001        .p      STRB     r1,[r0,#0]
        0x0000136c:    4770        pG      BX       lr
    iic_master_eri_isr
        0x0000136e:    b5b0        ..      PUSH     {r4,r5,r7,lr}
        0x00001370:    f3ef8003    ....    MRS      r0,XPSR
        0x00001374:    f240516c    @.lQ    MOV      r1,#0x56c
        0x00001378:    f36f205f    o._     BFC      r0,#9,#23
        0x0000137c:    f2c20100    ....    MOVT     r1,#0x2000
        0x00001380:    eb010080    ....    ADD      r0,r1,r0,LSL #2
        0x00001384:    f8504c40    P.@L    LDR      r4,[r0,#-0x40]
        0x00001388:    6921        !i      LDR      r1,[r4,#0x10]
        0x0000138a:    7a4a        Jz      LDRB     r2,[r1,#9]
        0x0000138c:    7a4b        Kz      LDRB     r3,[r1,#9]
        0x0000138e:    f002001f    ....    AND      r0,r2,#0x1f
        0x00001392:    f00303e0    ....    AND      r3,r3,#0xe0
        0x00001396:    280f        .(      CMP      r0,#0xf
        0x00001398:    f0020203    ....    AND      r2,r2,#3
        0x0000139c:    724b        Kr      STRB     r3,[r1,#9]
        0x0000139e:    d801        ..      BHI      0x13a4 ; iic_master_eri_isr + 54
        0x000013a0:    b93a        :.      CBNZ     r2,0x13b2 ; iic_master_eri_isr + 68
        0x000013a2:    e024        $.      B        0x13ee ; iic_master_eri_isr + 128
        0x000013a4:    6921        !i      LDR      r1,[r4,#0x10]
        0x000013a6:    784b        Kx      LDRB     r3,[r1,#1]
        0x000013a8:    065b        [.      LSLS     r3,r3,#25
        0x000013aa:    bf58        X.      IT       PL
        0x000013ac:    f0420201    B...    ORRPL    r2,r2,#1
        0x000013b0:    b1d2        ..      CBZ      r2,0x13e8 ; iic_master_eri_isr + 122
        0x000013b2:    2001        .       MOVS     r0,#1
        0x000013b4:    f884002b    ..+.    STRB     r0,[r4,#0x2b]
        0x000013b8:    6920         i      LDR      r0,[r4,#0x10]
        0x000013ba:    2500        .%      MOVS     r5,#0
        0x000013bc:    71c5        .q      STRB     r5,[r0,#7]
        0x000013be:    6821        !h      LDR      r1,[r4,#0]
        0x000013c0:    4620         F      MOV      r0,r4
        0x000013c2:    f000f88f    ....    BL       iic_master_open_hw_master ; 0x14e4
        0x000013c6:    f8940026    ..&.    LDRB     r0,[r4,#0x26]
        0x000013ca:    6921        !i      LDR      r1,[r4,#0x10]
        0x000013cc:    f8840028    ..(.    STRB     r0,[r4,#0x28]
        0x000013d0:    69a0        .i      LDR      r0,[r4,#0x18]
        0x000013d2:    e9c45007    ...P    STRD     r5,r0,[r4,#0x1c]
        0x000013d6:    20b3        .       MOVS     r0,#0xb3
        0x000013d8:    f884502c    ..,P    STRB     r5,[r4,#0x2c]
        0x000013dc:    f884502a    ..*P    STRB     r5,[r4,#0x2a]
        0x000013e0:    71c8        .q      STRB     r0,[r1,#7]
        0x000013e2:    4620         F      MOV      r0,r4
        0x000013e4:    2101        .!      MOVS     r1,#1
        0x000013e6:    e04e        N.      B        0x1486 ; iic_master_eri_isr + 280
        0x000013e8:    784a        Jx      LDRB     r2,[r1,#1]
        0x000013ea:    0652        R.      LSLS     r2,r2,#25
        0x000013ec:    d411        ..      BMI      0x1412 ; iic_master_eri_isr + 164
        0x000013ee:    0701        ..      LSLS     r1,r0,#28
        0x000013f0:    d406        ..      BMI      0x1400 ; iic_master_eri_isr + 146
        0x000013f2:    f894202c    ..,     LDRB     r2,[r4,#0x2c]
        0x000013f6:    2a01        .*      CMP      r2,#1
        0x000013f8:    d131        1.      BNE      0x145e ; iic_master_eri_isr + 240
        0x000013fa:    f0100204    ....    ANDS     r2,r0,#4
        0x000013fe:    d02e        ..      BEQ      0x145e ; iic_master_eri_isr + 240
        0x00001400:    69e0        .i      LDR      r0,[r4,#0x1c]
        0x00001402:    b910        ..      CBNZ     r0,0x140a ; iic_master_eri_isr + 156
        0x00001404:    f894002b    ..+.    LDRB     r0,[r4,#0x2b]
        0x00001408:    b398        ..      CBZ      r0,0x1472 ; iic_master_eri_isr + 260
        0x0000140a:    2900        .)      CMP      r1,#0
        0x0000140c:    d419        ..      BMI      0x1442 ; iic_master_eri_isr + 212
        0x0000140e:    2101        .!      MOVS     r1,#1
        0x00001410:    e038        8.      B        0x1484 ; iic_master_eri_isr + 278
        0x00001412:    2001        .       MOVS     r0,#1
        0x00001414:    f884002b    ..+.    STRB     r0,[r4,#0x2b]
        0x00001418:    2008        .       MOVS     r0,#8
        0x0000141a:    7048        Hp      STRB     r0,[r1,#1]
        0x0000141c:    6820         h      LDR      r0,[r4,#0]
        0x0000141e:    6b40        @k      LDR      r0,[r0,#0x34]
        0x00001420:    7801        .x      LDRB     r1,[r0,#0]
        0x00001422:    7ac2        .z      LDRB     r2,[r0,#0xb]
        0x00001424:    7b00        .{      LDRB     r0,[r0,#0xc]
        0x00001426:    ea411102    A...    ORR      r1,r1,r2,LSL #4
        0x0000142a:    ea4110c0    A...    ORR      r0,r1,r0,LSL #7
        0x0000142e:    6921        !i      LDR      r1,[r4,#0x10]
        0x00001430:    f0400002    @...    ORR      r0,r0,#2
        0x00001434:    70c8        .p      STRB     r0,[r1,#3]
        0x00001436:    6920         i      LDR      r0,[r4,#0x10]
        0x00001438:    7941        Ay      LDRB     r1,[r0,#5]
        0x0000143a:    f0410101    A...    ORR      r1,r1,#1
        0x0000143e:    7141        Aq      STRB     r1,[r0,#5]
        0x00001440:    e023        #.      B        0x148a ; iic_master_eri_isr + 284
        0x00001442:    f8940026    ..&.    LDRB     r0,[r4,#0x26]
        0x00001446:    2100        .!      MOVS     r1,#0
        0x00001448:    f8840028    ..(.    STRB     r0,[r4,#0x28]
        0x0000144c:    69a0        .i      LDR      r0,[r4,#0x18]
        0x0000144e:    e9c41007    ....    STRD     r1,r0,[r4,#0x1c]
        0x00001452:    f884102c    ..,.    STRB     r1,[r4,#0x2c]
        0x00001456:    f884102a    ..*.    STRB     r1,[r4,#0x2a]
        0x0000145a:    2101        .!      MOVS     r1,#1
        0x0000145c:    e00f        ..      B        0x147e ; iic_master_eri_isr + 272
        0x0000145e:    0740        @.      LSLS     r0,r0,#29
        0x00001460:    d513        ..      BPL      0x148a ; iic_master_eri_isr + 284
        0x00001462:    6820         h      LDR      r0,[r4,#0]
        0x00001464:    6b40        @k      LDR      r0,[r0,#0x34]
        0x00001466:    7b40        @{      LDRB     r0,[r0,#0xd]
        0x00001468:    2801        .(      CMP      r0,#1
        0x0000146a:    d10e        ..      BNE      0x148a ; iic_master_eri_isr + 284
        0x0000146c:    4620         F      MOV      r0,r4
        0x0000146e:    2104        .!      MOVS     r1,#4
        0x00001470:    e009        ..      B        0x1486 ; iic_master_eri_isr + 280
        0x00001472:    f8940029    ..).    LDRB     r0,[r4,#0x29]
        0x00001476:    2103        .!      MOVS     r1,#3
        0x00001478:    2800        .(      CMP      r0,#0
        0x0000147a:    bf18        ..      IT       NE
        0x0000147c:    2102        .!      MOVNE    r1,#2
        0x0000147e:    6920         i      LDR      r0,[r4,#0x10]
        0x00001480:    22b3        ."      MOVS     r2,#0xb3
        0x00001482:    71c2        .q      STRB     r2,[r0,#7]
        0x00001484:    4620         F      MOV      r0,r4
        0x00001486:    f000f811    ....    BL       iic_master_notify ; 0x14ac
        0x0000148a:    f3ef8003    ....    MRS      r0,XPSR
        0x0000148e:    f24621c0    F..!    MOV      r1,#0x62c0
        0x00001492:    f36f205f    o._     BFC      r0,#9,#23
        0x00001496:    f2c40100    ....    MOVT     r1,#0x4000
        0x0000149a:    f8512020    Q.      LDR      r2,[r1,r0,LSL #2]
        0x0000149e:    f4223280    "..2    BIC      r2,r2,#0x10000
        0x000014a2:    f8412020    A.      STR      r2,[r1,r0,LSL #2]
        0x000014a6:    f8510020    Q. .    LDR      r0,[r1,r0,LSL #2]
        0x000014aa:    bdb0        ..      POP      {r4,r5,r7,pc}
    iic_master_notify
        0x000014ac:    b510        ..      PUSH     {r4,lr}
        0x000014ae:    b082        ..      SUB      sp,sp,#8
        0x000014b0:    4604        .F      MOV      r4,r0
        0x000014b2:    6b80        .k      LDR      r0,[r0,#0x38]
        0x000014b4:    2800        .(      CMP      r0,#0
        0x000014b6:    bf1a        ..      ITTE     NE
        0x000014b8:    e9d02300    ...#    LDRDNE   r2,r3,[r0,#0]
        0x000014bc:    e9cd2300    ...#    STRDNE   r2,r3,[sp,#0]
        0x000014c0:    4668        hF      MOVEQ    r0,sp
        0x000014c2:    6be2        .k      LDR      r2,[r4,#0x3c]
        0x000014c4:    6b63        ck      LDR      r3,[r4,#0x34]
        0x000014c6:    e9c02100    ...!    STRD     r2,r1,[r0,#0]
        0x000014ca:    4798        .G      BLX      r3
        0x000014cc:    6ba0        .k      LDR      r0,[r4,#0x38]
        0x000014ce:    b118        ..      CBZ      r0,0x14d8 ; iic_master_notify + 44
        0x000014d0:    e9dd1200    ....    LDRD     r1,r2,[sp,#0]
        0x000014d4:    e9c01200    ....    STRD     r1,r2,[r0,#0]
        0x000014d8:    2000        .       MOVS     r0,#0
        0x000014da:    f884002b    ..+.    STRB     r0,[r4,#0x2b]
        0x000014de:    b002        ..      ADD      sp,sp,#8
        0x000014e0:    bd10        ..      POP      {r4,pc}
        0x000014e2:    0000        ..      MOVS     r0,r0
    iic_master_open_hw_master
        0x000014e4:    b5f0        ..      PUSH     {r4-r7,lr}
        0x000014e6:    6902        .i      LDR      r2,[r0,#0x10]
        0x000014e8:    2300        .#      MOVS     r3,#0
        0x000014ea:    7013        .p      STRB     r3,[r2,#0]
        0x000014ec:    6902        .i      LDR      r2,[r0,#0x10]
        0x000014ee:    2340        @#      MOVS     r3,#0x40
        0x000014f0:    7013        .p      STRB     r3,[r2,#0]
        0x000014f2:    6902        .i      LDR      r2,[r0,#0x10]
        0x000014f4:    7813        .x      LDRB     r3,[r2,#0]
        0x000014f6:    065b        [.      LSLS     r3,r3,#25
        0x000014f8:    d5fc        ..      BPL      0x14f4 ; iic_master_open_hw_master + 16
        0x000014fa:    23c0        .#      MOVS     r3,#0xc0
        0x000014fc:    7013        .p      STRB     r3,[r2,#0]
        0x000014fe:    6802        .h      LDR      r2,[r0,#0]
        0x00001500:    6903        .i      LDR      r3,[r0,#0x10]
        0x00001502:    6b52        Rk      LDR      r2,[r2,#0x34]
        0x00001504:    2508        .%      MOVS     r5,#8
        0x00001506:    7a92        .z      LDRB     r2,[r2,#0xa]
        0x00001508:    2477        w$      MOVS     r4,#0x77
        0x0000150a:    f04202e0    B...    ORR      r2,r2,#0xe0
        0x0000150e:    741a        .t      STRB     r2,[r3,#0x10]
        0x00001510:    6802        .h      LDR      r2,[r0,#0]
        0x00001512:    6903        .i      LDR      r3,[r0,#0x10]
        0x00001514:    6b52        Rk      LDR      r2,[r2,#0x34]
        0x00001516:    f24e1c00    N...    MOVW     r12,#0xe100
        0x0000151a:    7a52        Rz      LDRB     r2,[r2,#9]
        0x0000151c:    f2ce0c00    ....    MOVT     r12,#0xe000
        0x00001520:    f04202e0    B...    ORR      r2,r2,#0xe0
        0x00001524:    745a        Zt      STRB     r2,[r3,#0x11]
        0x00001526:    6802        .h      LDR      r2,[r0,#0]
        0x00001528:    6903        .i      LDR      r3,[r0,#0x10]
        0x0000152a:    6b52        Rk      LDR      r2,[r2,#0x34]
        0x0000152c:    f2405e6c    @.l^    MOV      lr,#0x56c
        0x00001530:    7a12        .z      LDRB     r2,[r2,#8]
        0x00001532:    f2c20e00    ....    MOVT     lr,#0x2000
        0x00001536:    f3621506    b...    BFI      r5,r2,#4,#3
        0x0000153a:    709d        .p      STRB     r5,[r3,#2]
        0x0000153c:    6802        .h      LDR      r2,[r0,#0]
        0x0000153e:    6905        .i      LDR      r5,[r0,#0x10]
        0x00001540:    6b52        Rk      LDR      r2,[r2,#0x34]
        0x00001542:    e9d22300    ...#    LDRD     r2,r3,[r2,#0]
        0x00001546:    2a01        .*      CMP      r2,#1
        0x00001548:    ea4f0343    O.C.    LSL      r3,r3,#1
        0x0000154c:    bf08        ..      IT       EQ
        0x0000154e:    3301        .3      ADDEQ    r3,#1
        0x00001550:    f0430204    C...    ORR      r2,r3,#4
        0x00001554:    70ea        .p      STRB     r2,[r5,#3]
        0x00001556:    6802        .h      LDR      r2,[r0,#0]
        0x00001558:    6903        .i      LDR      r3,[r0,#0x10]
        0x0000155a:    6852        Rh      LDR      r2,[r2,#4]
        0x0000155c:    f2442540    D.@%    MOV      r5,#0x4240
        0x00001560:    f2c0050f    ....    MOVT     r5,#0xf
        0x00001564:    42aa        .B      CMP      r2,r5
        0x00001566:    bf08        ..      IT       EQ
        0x00001568:    f06f0408    o...    MVNEQ    r4,#8
        0x0000156c:    715c        \q      STRB     r4,[r3,#5]
        0x0000156e:    6902        .i      LDR      r2,[r0,#0x10]
        0x00001570:    2300        .#      MOVS     r3,#0
        0x00001572:    7193        .q      STRB     r3,[r2,#6]
        0x00001574:    6902        .i      LDR      r2,[r0,#0x10]
        0x00001576:    23b3        .#      MOVS     r3,#0xb3
        0x00001578:    71d3        .q      STRB     r3,[r2,#7]
        0x0000157a:    7c0a        .|      LDRB     r2,[r1,#0x10]
        0x0000157c:    6a0e        .j      LDR      r6,[r1,#0x20]
        0x0000157e:    0113        ..      LSLS     r3,r2,#4
        0x00001580:    f50c7240    ..@r    ADD      r2,r12,#0x300
        0x00001584:    5593        .U      STRB     r3,[r2,r6]
        0x00001586:    f2463300    F..3    MOVW     r3,#0x6300
        0x0000158a:    f84e0026    N.&.    STR      r0,[lr,r6,LSL #2]
        0x0000158e:    f2c40300    ....    MOVT     r3,#0x4000
        0x00001592:    f8534026    S.&@    LDR      r4,[r3,r6,LSL #2]
        0x00001596:    f006051f    ....    AND      r5,r6,#0x1f
        0x0000159a:    f4243480    $..4    BIC      r4,r4,#0x10000
        0x0000159e:    f8434026    C.&@    STR      r4,[r3,r6,LSL #2]
        0x000015a2:    f8534026    S.&@    LDR      r4,[r3,r6,LSL #2]
        0x000015a6:    2401        .$      MOVS     r4,#1
        0x000015a8:    fa04f705    ....    LSL      r7,r4,r5
        0x000015ac:    f50c75c0    ...u    ADD      r5,r12,#0x180
        0x000015b0:    0976        v.      LSRS     r6,r6,#5
        0x000015b2:    f3bf8f5f    .._.    DMB      
        0x000015b6:    f8457026    E.&p    STR      r7,[r5,r6,LSL #2]
        0x000015ba:    f84c7026    L.&p    STR      r7,[r12,r6,LSL #2]
        0x000015be:    7c0e        .|      LDRB     r6,[r1,#0x10]
        0x000015c0:    698f        .i      LDR      r7,[r1,#0x18]
        0x000015c2:    0136        6.      LSLS     r6,r6,#4
        0x000015c4:    55d6        .U      STRB     r6,[r2,r7]
        0x000015c6:    f84e0027    N.'.    STR      r0,[lr,r7,LSL #2]
        0x000015ca:    f8536027    S.'`    LDR      r6,[r3,r7,LSL #2]
        0x000015ce:    f4263680    &..6    BIC      r6,r6,#0x10000
        0x000015d2:    f8436027    C.'`    STR      r6,[r3,r7,LSL #2]
        0x000015d6:    f8536027    S.'`    LDR      r6,[r3,r7,LSL #2]
        0x000015da:    f007061f    ....    AND      r6,r7,#0x1f
        0x000015de:    fa04f606    ....    LSL      r6,r4,r6
        0x000015e2:    097f        ..      LSRS     r7,r7,#5
        0x000015e4:    f3bf8f5f    .._.    DMB      
        0x000015e8:    f8456027    E.'`    STR      r6,[r5,r7,LSL #2]
        0x000015ec:    f84c6027    L.'`    STR      r6,[r12,r7,LSL #2]
        0x000015f0:    7c0e        .|      LDRB     r6,[r1,#0x10]
        0x000015f2:    69cf        .i      LDR      r7,[r1,#0x1c]
        0x000015f4:    0136        6.      LSLS     r6,r6,#4
        0x000015f6:    55d6        .U      STRB     r6,[r2,r7]
        0x000015f8:    f84e0027    N.'.    STR      r0,[lr,r7,LSL #2]
        0x000015fc:    f8536027    S.'`    LDR      r6,[r3,r7,LSL #2]
        0x00001600:    f4263680    &..6    BIC      r6,r6,#0x10000
        0x00001604:    f8436027    C.'`    STR      r6,[r3,r7,LSL #2]
        0x00001608:    f8536027    S.'`    LDR      r6,[r3,r7,LSL #2]
        0x0000160c:    f007061f    ....    AND      r6,r7,#0x1f
        0x00001610:    fa04f606    ....    LSL      r6,r4,r6
        0x00001614:    097f        ..      LSRS     r7,r7,#5
        0x00001616:    f3bf8f5f    .._.    DMB      
        0x0000161a:    f8456027    E.'`    STR      r6,[r5,r7,LSL #2]
        0x0000161e:    f84c6027    L.'`    STR      r6,[r12,r7,LSL #2]
        0x00001622:    7c0e        .|      LDRB     r6,[r1,#0x10]
        0x00001624:    6949        Ii      LDR      r1,[r1,#0x14]
        0x00001626:    0136        6.      LSLS     r6,r6,#4
        0x00001628:    5456        VT      STRB     r6,[r2,r1]
        0x0000162a:    f84e0021    N.!.    STR      r0,[lr,r1,LSL #2]
        0x0000162e:    f8532021    S.!     LDR      r2,[r3,r1,LSL #2]
        0x00001632:    f4223280    "..2    BIC      r2,r2,#0x10000
        0x00001636:    f8432021    C.!     STR      r2,[r3,r1,LSL #2]
        0x0000163a:    f8532021    S.!     LDR      r2,[r3,r1,LSL #2]
        0x0000163e:    f001021f    ....    AND      r2,r1,#0x1f
        0x00001642:    fa04f202    ....    LSL      r2,r4,r2
        0x00001646:    0949        I.      LSRS     r1,r1,#5
        0x00001648:    f3bf8f5f    .._.    DMB      
        0x0000164c:    f8452021    E.!     STR      r2,[r5,r1,LSL #2]
        0x00001650:    f84c2021    L.!     STR      r2,[r12,r1,LSL #2]
        0x00001654:    219f        .!      MOVS     r1,#0x9f
        0x00001656:    6900        .i      LDR      r0,[r0,#0x10]
        0x00001658:    7001        .p      STRB     r1,[r0,#0]
        0x0000165a:    bdf0        ..      POP      {r4-r7,pc}
    iic_master_read_write
        0x0000165c:    f8d0c008    ....    LDR      r12,[r0,#8]
        0x00001660:    e9c01205    ....    STRD     r1,r2,[r0,#0x14]
        0x00001664:    f1bc0f01    ....    CMP      r12,#1
        0x00001668:    d108        ..      BNE      0x167c ; iic_master_read_write + 32
        0x0000166a:    6841        Ah      LDR      r1,[r0,#4]
        0x0000166c:    f44f7c80    O..|    MOV      r12,#0x100
        0x00001670:    ea430141    C.A.    ORR      r1,r3,r1,LSL #1
        0x00001674:    f8a0c025    ..%.    STRH     r12,[r0,#0x25]
        0x00001678:    f8801024    ..$.    STRB     r1,[r0,#0x24]
        0x0000167c:    b510        ..      PUSH     {r4,lr}
        0x0000167e:    b081        ..      SUB      sp,sp,#4
        0x00001680:    f24e0120    N. .    MOV      r1,#0xe020
        0x00001684:    2b00        .+      CMP      r3,#0
        0x00001686:    bf18        ..      IT       NE
        0x00001688:    2301        .#      MOVNE    r3,#1
        0x0000168a:    f8803029    ..)0    STRB     r3,[r0,#0x29]
        0x0000168e:    f2c40101    ....    MOVT     r1,#0x4001
        0x00001692:    6809        .h      LDR      r1,[r1,#0]
        0x00001694:    9100        ..      STR      r1,[sp,#0]
        0x00001696:    9900        ..      LDR      r1,[sp,#0]
        0x00001698:    f001210f    ...!    AND      r1,r1,#0xf000f00
        0x0000169c:    9100        ..      STR      r1,[sp,#0]
        0x0000169e:    f8dde000    ....    LDR      lr,[sp,#0]
        0x000016a2:    f8ddc000    ....    LDR      r12,[sp,#0]
        0x000016a6:    6901        .i      LDR      r1,[r0,#0x10]
        0x000016a8:    7c0b        .|      LDRB     r3,[r1,#0x10]
        0x000016aa:    f890402c    ..,@    LDRB     r4,[r0,#0x2c]
        0x000016ae:    b9a4        ..      CBNZ     r4,0x16da ; iic_master_read_write + 126
        0x000016b0:    f3ce2203    ..."    UBFX     r2,lr,#8,#4
        0x000016b4:    eba2621c    ...b    SUB      r2,r2,r12,LSR #24
        0x000016b8:    fa03f202    ....    LSL      r2,r3,r2
        0x000016bc:    2a04        .*      CMP      r2,#4
        0x000016be:    d307        ..      BCC      0x16d0 ; iic_master_read_write + 116
        0x000016c0:    0892        ..      LSRS     r2,r2,#2
        0x000016c2:    bf00        ..      NOP      
        0x000016c4:    f9913001    ...0    LDRSB    r3,[r1,#1]
        0x000016c8:    2b00        .+      CMP      r3,#0
        0x000016ca:    d503        ..      BPL      0x16d4 ; iic_master_read_write + 120
        0x000016cc:    3a01        .:      SUBS     r2,#1
        0x000016ce:    d1f9        ..      BNE      0x16c4 ; iic_master_read_write + 104
        0x000016d0:    2108        .!      MOVS     r1,#8
        0x000016d2:    e06a        j.      B        0x17aa ; iic_master_read_write + 334
        0x000016d4:    2200        ."      MOVS     r2,#0
        0x000016d6:    71ca        .q      STRB     r2,[r1,#7]
        0x000016d8:    6982        .i      LDR      r2,[r0,#0x18]
        0x000016da:    f8903026    ..&0    LDRB     r3,[r0,#0x26]
        0x000016de:    2100        .!      MOVS     r1,#0
        0x000016e0:    f8801028    ..(.    STRB     r1,[r0,#0x28]
        0x000016e4:    e9c02107    ...!    STRD     r2,r1,[r0,#0x1c]
        0x000016e8:    f8803027    ..'0    STRB     r3,[r0,#0x27]
        0x000016ec:    f880102b    ..+.    STRB     r1,[r0,#0x2b]
        0x000016f0:    f880102d    ..-.    STRB     r1,[r0,#0x2d]
        0x000016f4:    f880102e    ....    STRB     r1,[r0,#0x2e]
        0x000016f8:    f880102f    ../.    STRB     r1,[r0,#0x2f]
        0x000016fc:    f8801030    ..0.    STRB     r1,[r0,#0x30]
        0x00001700:    6801        .h      LDR      r1,[r0,#0]
        0x00001702:    f8d0c010    ....    LDR      r12,[r0,#0x10]
        0x00001706:    6b49        Ik      LDR      r1,[r1,#0x34]
        0x00001708:    e9d12300    ...#    LDRD     r2,r3,[r1,#0]
        0x0000170c:    7b0c        .{      LDRB     r4,[r1,#0xc]
        0x0000170e:    2a01        .*      CMP      r2,#1
        0x00001710:    7aca        .z      LDRB     r2,[r1,#0xb]
        0x00001712:    ea4f0343    O.C.    LSL      r3,r3,#1
        0x00001716:    ea4f1202    O...    LSL      r2,r2,#4
        0x0000171a:    bf08        ..      IT       EQ
        0x0000171c:    3301        .3      ADDEQ    r3,#1
        0x0000171e:    ea4212c4    B...    ORR      r2,r2,r4,LSL #7
        0x00001722:    431a        .C      ORRS     r2,r2,r3
        0x00001724:    f0420204    B...    ORR      r2,r2,#4
        0x00001728:    f88c2003    ...     STRB     r2,[r12,#3]
        0x0000172c:    6902        .i      LDR      r2,[r0,#0x10]
        0x0000172e:    7913        .y      LDRB     r3,[r2,#4]
        0x00001730:    f0430310    C...    ORR      r3,r3,#0x10
        0x00001734:    7113        .q      STRB     r3,[r2,#4]
        0x00001736:    6902        .i      LDR      r2,[r0,#0x10]
        0x00001738:    7913        .y      LDRB     r3,[r2,#4]
        0x0000173a:    f00303f7    ....    AND      r3,r3,#0xf7
        0x0000173e:    7113        .q      STRB     r3,[r2,#4]
        0x00001740:    6902        .i      LDR      r2,[r0,#0x10]
        0x00001742:    7913        .y      LDRB     r3,[r2,#4]
        0x00001744:    f00303ef    ....    AND      r3,r3,#0xef
        0x00001748:    7113        .q      STRB     r3,[r2,#4]
        0x0000174a:    6902        .i      LDR      r2,[r0,#0x10]
        0x0000174c:    7b49        I{      LDRB     r1,[r1,#0xd]
        0x0000174e:    7913        .y      LDRB     r3,[r2,#4]
        0x00001750:    f003037f    ....    AND      r3,r3,#0x7f
        0x00001754:    ea4311c1    C...    ORR      r1,r3,r1,LSL #7
        0x00001758:    7111        .q      STRB     r1,[r2,#4]
        0x0000175a:    6901        .i      LDR      r1,[r0,#0x10]
        0x0000175c:    794a        Jy      LDRB     r2,[r1,#5]
        0x0000175e:    f0420201    B...    ORR      r2,r2,#1
        0x00001762:    714a        Jq      STRB     r2,[r1,#5]
        0x00001764:    6801        .h      LDR      r1,[r0,#0]
        0x00001766:    6989        .i      LDR      r1,[r1,#0x18]
        0x00001768:    2900        .)      CMP      r1,#0
        0x0000176a:    d40b        ..      BMI      0x1784 ; iic_master_read_write + 296
        0x0000176c:    f001021f    ....    AND      r2,r1,#0x1f
        0x00001770:    2301        .#      MOVS     r3,#1
        0x00001772:    fa03f202    ....    LSL      r2,r3,r2
        0x00001776:    f24e1300    N...    MOVW     r3,#0xe100
        0x0000177a:    0949        I.      LSRS     r1,r1,#5
        0x0000177c:    f2ce0300    ....    MOVT     r3,#0xe000
        0x00001780:    f8432021    C.!     STR      r2,[r3,r1,LSL #2]
        0x00001784:    6901        .i      LDR      r1,[r0,#0x10]
        0x00001786:    7a4a        Jz      LDRB     r2,[r1,#9]
        0x00001788:    f00202f3    ....    AND      r2,r2,#0xf3
        0x0000178c:    724a        Jr      STRB     r2,[r1,#9]
        0x0000178e:    6901        .i      LDR      r1,[r0,#0x10]
        0x00001790:    22bf        ."      MOVS     r2,#0xbf
        0x00001792:    71ca        .q      STRB     r2,[r1,#7]
        0x00001794:    f890102c    ..,.    LDRB     r1,[r0,#0x2c]
        0x00001798:    b119        ..      CBZ      r1,0x17a2 ; iic_master_read_write + 326
        0x0000179a:    2100        .!      MOVS     r1,#0
        0x0000179c:    f880102c    ..,.    STRB     r1,[r0,#0x2c]
        0x000017a0:    e003        ..      B        0x17aa ; iic_master_read_write + 334
        0x000017a2:    6900        .i      LDR      r0,[r0,#0x10]
        0x000017a4:    2102        .!      MOVS     r1,#2
        0x000017a6:    7041        Ap      STRB     r1,[r0,#1]
        0x000017a8:    2100        .!      MOVS     r1,#0
        0x000017aa:    4608        .F      MOV      r0,r1
        0x000017ac:    b001        ..      ADD      sp,sp,#4
        0x000017ae:    bd10        ..      POP      {r4,pc}
    iic_master_rxi_isr
        0x000017b0:    b510        ..      PUSH     {r4,lr}
        0x000017b2:    b082        ..      SUB      sp,sp,#8
        0x000017b4:    f3ef8003    ....    MRS      r0,XPSR
        0x000017b8:    f24621c0    F..!    MOV      r1,#0x62c0
        0x000017bc:    f36f205f    o._     BFC      r0,#9,#23
        0x000017c0:    f2c40100    ....    MOVT     r1,#0x4000
        0x000017c4:    f8512020    Q.      LDR      r2,[r1,r0,LSL #2]
        0x000017c8:    f4223280    "..2    BIC      r2,r2,#0x10000
        0x000017cc:    f8412020    A.      STR      r2,[r1,r0,LSL #2]
        0x000017d0:    f8510020    Q. .    LDR      r0,[r1,r0,LSL #2]
        0x000017d4:    f3ef8003    ....    MRS      r0,XPSR
        0x000017d8:    f240516c    @.lQ    MOV      r1,#0x56c
        0x000017dc:    f36f205f    o._     BFC      r0,#9,#23
        0x000017e0:    f2c20100    ....    MOVT     r1,#0x2000
        0x000017e4:    eb010080    ....    ADD      r0,r1,r0,LSL #2
        0x000017e8:    f8504c40    P.@L    LDR      r4,[r0,#-0x40]
        0x000017ec:    f894002d    ..-.    LDRB     r0,[r4,#0x2d]
        0x000017f0:    b1b8        ..      CBZ      r0,0x1822 ; iic_master_rxi_isr + 114
        0x000017f2:    69e0        .i      LDR      r0,[r4,#0x1c]
        0x000017f4:    2800        .(      CMP      r0,#0
        0x000017f6:    d062        b.      BEQ      0x18be ; iic_master_rxi_isr + 270
        0x000017f8:    6821        !h      LDR      r1,[r4,#0]
        0x000017fa:    6b49        Ik      LDR      r1,[r1,#0x34]
        0x000017fc:    7b49        I{      LDRB     r1,[r1,#0xd]
        0x000017fe:    2901        .)      CMP      r1,#1
        0x00001800:    d104        ..      BNE      0x180c ; iic_master_rxi_isr + 92
        0x00001802:    4620         F      MOV      r0,r4
        0x00001804:    2105        .!      MOVS     r1,#5
        0x00001806:    f7fffe51    ..Q.    BL       iic_master_notify ; 0x14ac
        0x0000180a:    69e0        .i      LDR      r0,[r4,#0x1c]
        0x0000180c:    2801        .(      CMP      r0,#1
        0x0000180e:    d058        X.      BEQ      0x18c2 ; iic_master_rxi_isr + 274
        0x00001810:    2802        .(      CMP      r0,#2
        0x00001812:    d033        3.      BEQ      0x187c ; iic_master_rxi_isr + 204
        0x00001814:    2803        .(      CMP      r0,#3
        0x00001816:    d140        @.      BNE      0x189a ; iic_master_rxi_isr + 234
        0x00001818:    6920         i      LDR      r0,[r4,#0x10]
        0x0000181a:    7901        .y      LDRB     r1,[r0,#4]
        0x0000181c:    f0410140    A.@.    ORR      r1,r1,#0x40
        0x00001820:    e03a        :.      B        0x1898 ; iic_master_rxi_isr + 232
        0x00001822:    69a0        .i      LDR      r0,[r4,#0x18]
        0x00001824:    2802        .(      CMP      r0,#2
        0x00001826:    d804        ..      BHI      0x1832 ; iic_master_rxi_isr + 130
        0x00001828:    6920         i      LDR      r0,[r4,#0x10]
        0x0000182a:    7901        .y      LDRB     r1,[r0,#4]
        0x0000182c:    f0410140    A.@.    ORR      r1,r1,#0x40
        0x00001830:    7101        .q      STRB     r1,[r0,#4]
        0x00001832:    69e0        .i      LDR      r0,[r4,#0x1c]
        0x00001834:    2801        .(      CMP      r0,#1
        0x00001836:    d10e        ..      BNE      0x1856 ; iic_master_rxi_isr + 166
        0x00001838:    6920         i      LDR      r0,[r4,#0x10]
        0x0000183a:    7901        .y      LDRB     r1,[r0,#4]
        0x0000183c:    f0410110    A...    ORR      r1,r1,#0x10
        0x00001840:    7101        .q      STRB     r1,[r0,#4]
        0x00001842:    6920         i      LDR      r0,[r4,#0x10]
        0x00001844:    7901        .y      LDRB     r1,[r0,#4]
        0x00001846:    f0410108    A...    ORR      r1,r1,#8
        0x0000184a:    7101        .q      STRB     r1,[r0,#4]
        0x0000184c:    6920         i      LDR      r0,[r4,#0x10]
        0x0000184e:    7901        .y      LDRB     r1,[r0,#4]
        0x00001850:    f00101ef    ....    AND      r1,r1,#0xef
        0x00001854:    7101        .q      STRB     r1,[r0,#4]
        0x00001856:    6820         h      LDR      r0,[r4,#0]
        0x00001858:    6b40        @k      LDR      r0,[r0,#0x34]
        0x0000185a:    7b40        @{      LDRB     r0,[r0,#0xd]
        0x0000185c:    2801        .(      CMP      r0,#1
        0x0000185e:    d103        ..      BNE      0x1868 ; iic_master_rxi_isr + 184
        0x00001860:    4620         F      MOV      r0,r4
        0x00001862:    2105        .!      MOVS     r1,#5
        0x00001864:    f7fffe22    ..".    BL       iic_master_notify ; 0x14ac
        0x00001868:    6920         i      LDR      r0,[r4,#0x10]
        0x0000186a:    7cc0        .|      LDRB     r0,[r0,#0x13]
        0x0000186c:    f88d0007    ....    STRB     r0,[sp,#7]
        0x00001870:    f89d0007    ....    LDRB     r0,[sp,#7]
        0x00001874:    2001        .       MOVS     r0,#1
        0x00001876:    f884002d    ..-.    STRB     r0,[r4,#0x2d]
        0x0000187a:    e020         .      B        0x18be ; iic_master_rxi_isr + 270
        0x0000187c:    6920         i      LDR      r0,[r4,#0x10]
        0x0000187e:    7901        .y      LDRB     r1,[r0,#4]
        0x00001880:    f0410110    A...    ORR      r1,r1,#0x10
        0x00001884:    7101        .q      STRB     r1,[r0,#4]
        0x00001886:    6920         i      LDR      r0,[r4,#0x10]
        0x00001888:    7901        .y      LDRB     r1,[r0,#4]
        0x0000188a:    f0410108    A...    ORR      r1,r1,#8
        0x0000188e:    7101        .q      STRB     r1,[r0,#4]
        0x00001890:    6920         i      LDR      r0,[r4,#0x10]
        0x00001892:    7901        .y      LDRB     r1,[r0,#4]
        0x00001894:    f00101ef    ....    AND      r1,r1,#0xef
        0x00001898:    7101        .q      STRB     r1,[r0,#4]
        0x0000189a:    e9d40104    ....    LDRD     r0,r1,[r4,#0x10]
        0x0000189e:    7cc0        .|      LDRB     r0,[r0,#0x13]
        0x000018a0:    6a22        "j      LDR      r2,[r4,#0x20]
        0x000018a2:    5488        .T      STRB     r0,[r1,r2]
        0x000018a4:    e9d41007    ....    LDRD     r1,r0,[r4,#0x1c]
        0x000018a8:    3901        .9      SUBS     r1,#1
        0x000018aa:    f1000001    ....    ADD      r0,r0,#1
        0x000018ae:    e9c41007    ....    STRD     r1,r0,[r4,#0x1c]
        0x000018b2:    d104        ..      BNE      0x18be ; iic_master_rxi_isr + 270
        0x000018b4:    6920         i      LDR      r0,[r4,#0x10]
        0x000018b6:    7901        .y      LDRB     r1,[r0,#4]
        0x000018b8:    f00101bf    ....    AND      r1,r1,#0xbf
        0x000018bc:    7101        .q      STRB     r1,[r0,#4]
        0x000018be:    b002        ..      ADD      sp,sp,#8
        0x000018c0:    bd10        ..      POP      {r4,pc}
        0x000018c2:    f894002a    ..*.    LDRB     r0,[r4,#0x2a]
        0x000018c6:    2801        .(      CMP      r0,#1
        0x000018c8:    d130        0.      BNE      0x192c ; iic_master_rxi_isr + 380
        0x000018ca:    6820         h      LDR      r0,[r4,#0]
        0x000018cc:    f24e1380    N...    MOV      r3,#0xe180
        0x000018d0:    6981        .i      LDR      r1,[r0,#0x18]
        0x000018d2:    2001        .       MOVS     r0,#1
        0x000018d4:    f001021f    ....    AND      r2,r1,#0x1f
        0x000018d8:    fa00f202    ....    LSL      r2,r0,r2
        0x000018dc:    0949        I.      LSRS     r1,r1,#5
        0x000018de:    f2ce0300    ....    MOVT     r3,#0xe000
        0x000018e2:    f8432021    C.!     STR      r2,[r3,r1,LSL #2]
        0x000018e6:    f3bf8f4f    ..O.    DSB      
        0x000018ea:    f3bf8f6f    ..o.    ISB      
        0x000018ee:    6921        !i      LDR      r1,[r4,#0x10]
        0x000018f0:    79ca        .y      LDRB     r2,[r1,#7]
        0x000018f2:    f0420280    B...    ORR      r2,r2,#0x80
        0x000018f6:    71ca        .q      STRB     r2,[r1,#7]
        0x000018f8:    6921        !i      LDR      r1,[r4,#0x10]
        0x000018fa:    790a        .y      LDRB     r2,[r1,#4]
        0x000018fc:    f0420210    B...    ORR      r2,r2,#0x10
        0x00001900:    710a        .q      STRB     r2,[r1,#4]
        0x00001902:    6921        !i      LDR      r1,[r4,#0x10]
        0x00001904:    790a        .y      LDRB     r2,[r1,#4]
        0x00001906:    f00202f7    ....    AND      r2,r2,#0xf7
        0x0000190a:    710a        .q      STRB     r2,[r1,#4]
        0x0000190c:    6921        !i      LDR      r1,[r4,#0x10]
        0x0000190e:    790a        .y      LDRB     r2,[r1,#4]
        0x00001910:    f00202ef    ....    AND      r2,r2,#0xef
        0x00001914:    710a        .q      STRB     r2,[r1,#4]
        0x00001916:    6921        !i      LDR      r1,[r4,#0x10]
        0x00001918:    2204        ."      MOVS     r2,#4
        0x0000191a:    704a        Jp      STRB     r2,[r1,#1]
        0x0000191c:    6921        !i      LDR      r1,[r4,#0x10]
        0x0000191e:    794a        Jy      LDRB     r2,[r1,#5]
        0x00001920:    f00202fe    ....    AND      r2,r2,#0xfe
        0x00001924:    714a        Jq      STRB     r2,[r1,#5]
        0x00001926:    f884002c    ..,.    STRB     r0,[r4,#0x2c]
        0x0000192a:    e7b6        ..      B        0x189a ; iic_master_rxi_isr + 234
        0x0000192c:    6920         i      LDR      r0,[r4,#0x10]
        0x0000192e:    7a41        Az      LDRB     r1,[r0,#9]
        0x00001930:    f00101f7    ....    AND      r1,r1,#0xf7
        0x00001934:    7241        Ar      STRB     r1,[r0,#9]
        0x00001936:    6920         i      LDR      r0,[r4,#0x10]
        0x00001938:    2108        .!      MOVS     r1,#8
        0x0000193a:    7041        Ap      STRB     r1,[r0,#1]
        0x0000193c:    e7ad        ..      B        0x189a ; iic_master_rxi_isr + 234
        0x0000193e:    0000        ..      MOVS     r0,r0
    iic_master_tei_isr
        0x00001940:    b510        ..      PUSH     {r4,lr}
        0x00001942:    f3ef8003    ....    MRS      r0,XPSR
        0x00001946:    f240516c    @.lQ    MOV      r1,#0x56c
        0x0000194a:    f36f205f    o._     BFC      r0,#9,#23
        0x0000194e:    f2c20100    ....    MOVT     r1,#0x2000
        0x00001952:    eb010080    ....    ADD      r0,r1,r0,LSL #2
        0x00001956:    f8504c40    P.@L    LDR      r4,[r0,#-0x40]
        0x0000195a:    6820         h      LDR      r0,[r4,#0]
        0x0000195c:    6b40        @k      LDR      r0,[r0,#0x34]
        0x0000195e:    7b40        @{      LDRB     r0,[r0,#0xd]
        0x00001960:    2801        .(      CMP      r0,#1
        0x00001962:    d103        ..      BNE      0x196c ; iic_master_tei_isr + 44
        0x00001964:    4620         F      MOV      r0,r4
        0x00001966:    2105        .!      MOVS     r1,#5
        0x00001968:    f7fffda0    ....    BL       iic_master_notify ; 0x14ac
        0x0000196c:    f8940029    ..).    LDRB     r0,[r4,#0x29]
        0x00001970:    2801        .(      CMP      r0,#1
        0x00001972:    d106        ..      BNE      0x1982 ; iic_master_tei_isr + 66
        0x00001974:    f8940027    ..'.    LDRB     r0,[r4,#0x27]
        0x00001978:    2801        .(      CMP      r0,#1
        0x0000197a:    d102        ..      BNE      0x1982 ; iic_master_tei_isr + 66
        0x0000197c:    f8940030    ..0.    LDRB     r0,[r4,#0x30]
        0x00001980:    b378        x.      CBZ      r0,0x19e2 ; iic_master_tei_isr + 162
        0x00001982:    69e0        .i      LDR      r0,[r4,#0x1c]
        0x00001984:    bb68        h.      CBNZ     r0,0x19e2 ; iic_master_tei_isr + 162
        0x00001986:    f894002a    ..*.    LDRB     r0,[r4,#0x2a]
        0x0000198a:    2801        .(      CMP      r0,#1
        0x0000198c:    d121        !.      BNE      0x19d2 ; iic_master_tei_isr + 146
        0x0000198e:    6820         h      LDR      r0,[r4,#0]
        0x00001990:    2201        ."      MOVS     r2,#1
        0x00001992:    6980        .i      LDR      r0,[r0,#0x18]
        0x00001994:    f24e1380    N...    MOV      r3,#0xe180
        0x00001998:    f000011f    ....    AND      r1,r0,#0x1f
        0x0000199c:    fa02f101    ....    LSL      r1,r2,r1
        0x000019a0:    0940        @.      LSRS     r0,r0,#5
        0x000019a2:    f2ce0300    ....    MOVT     r3,#0xe000
        0x000019a6:    f8431020    C. .    STR      r1,[r3,r0,LSL #2]
        0x000019aa:    f3bf8f4f    ..O.    DSB      
        0x000019ae:    f3bf8f6f    ..o.    ISB      
        0x000019b2:    6920         i      LDR      r0,[r4,#0x10]
        0x000019b4:    79c1        .y      LDRB     r1,[r0,#7]
        0x000019b6:    f0410180    A...    ORR      r1,r1,#0x80
        0x000019ba:    71c1        .q      STRB     r1,[r0,#7]
        0x000019bc:    6920         i      LDR      r0,[r4,#0x10]
        0x000019be:    2104        .!      MOVS     r1,#4
        0x000019c0:    7041        Ap      STRB     r1,[r0,#1]
        0x000019c2:    6920         i      LDR      r0,[r4,#0x10]
        0x000019c4:    7941        Ay      LDRB     r1,[r0,#5]
        0x000019c6:    f00101fe    ....    AND      r1,r1,#0xfe
        0x000019ca:    7141        Aq      STRB     r1,[r0,#5]
        0x000019cc:    f884202c    ..,     STRB     r2,[r4,#0x2c]
        0x000019d0:    e007        ..      B        0x19e2 ; iic_master_tei_isr + 162
        0x000019d2:    6920         i      LDR      r0,[r4,#0x10]
        0x000019d4:    7a41        Az      LDRB     r1,[r0,#9]
        0x000019d6:    f00101f7    ....    AND      r1,r1,#0xf7
        0x000019da:    7241        Ar      STRB     r1,[r0,#9]
        0x000019dc:    6920         i      LDR      r0,[r4,#0x10]
        0x000019de:    2108        .!      MOVS     r1,#8
        0x000019e0:    7041        Ap      STRB     r1,[r0,#1]
        0x000019e2:    6920         i      LDR      r0,[r4,#0x10]
        0x000019e4:    79c1        .y      LDRB     r1,[r0,#7]
        0x000019e6:    f00101bf    ....    AND      r1,r1,#0xbf
        0x000019ea:    71c1        .q      STRB     r1,[r0,#7]
        0x000019ec:    6920         i      LDR      r0,[r4,#0x10]
        0x000019ee:    f06f01be    o...    MVN      r1,#0xbe
        0x000019f2:    bf00        ..      NOP      
        0x000019f4:    79c2        .y      LDRB     r2,[r0,#7]
        0x000019f6:    0652        R.      LSLS     r2,r2,#25
        0x000019f8:    d503        ..      BPL      0x1a02 ; iic_master_tei_isr + 194
        0x000019fa:    2900        .)      CMP      r1,#0
        0x000019fc:    f1010101    ....    ADD      r1,r1,#1
        0x00001a00:    d1f8        ..      BNE      0x19f4 ; iic_master_tei_isr + 180
        0x00001a02:    f3ef8003    ....    MRS      r0,XPSR
        0x00001a06:    f24621c0    F..!    MOV      r1,#0x62c0
        0x00001a0a:    f36f205f    o._     BFC      r0,#9,#23
        0x00001a0e:    f2c40100    ....    MOVT     r1,#0x4000
        0x00001a12:    f8512020    Q.      LDR      r2,[r1,r0,LSL #2]
        0x00001a16:    f4223280    "..2    BIC      r2,r2,#0x10000
        0x00001a1a:    f8412020    A.      STR      r2,[r1,r0,LSL #2]
        0x00001a1e:    f8510020    Q. .    LDR      r0,[r1,r0,LSL #2]
        0x00001a22:    bd10        ..      POP      {r4,pc}
    iic_master_txi_isr
        0x00001a24:    b5b0        ..      PUSH     {r4,r5,r7,lr}
        0x00001a26:    f3ef8003    ....    MRS      r0,XPSR
        0x00001a2a:    f06f013f    o.?.    MVN      r1,#0x3f
        0x00001a2e:    f36f205f    o._     BFC      r0,#9,#23
        0x00001a32:    eb010080    ....    ADD      r0,r1,r0,LSL #2
        0x00001a36:    f2463500    F..5    MOVW     r5,#0x6300
        0x00001a3a:    f2c40500    ....    MOVT     r5,#0x4000
        0x00001a3e:    5941        AY      LDR      r1,[r0,r5]
        0x00001a40:    f4213180    !..1    BIC      r1,r1,#0x10000
        0x00001a44:    5141        AQ      STR      r1,[r0,r5]
        0x00001a46:    5940        @Y      LDR      r0,[r0,r5]
        0x00001a48:    f3ef8003    ....    MRS      r0,XPSR
        0x00001a4c:    f240516c    @.lQ    MOV      r1,#0x56c
        0x00001a50:    f36f205f    o._     BFC      r0,#9,#23
        0x00001a54:    f2c20100    ....    MOVT     r1,#0x2000
        0x00001a58:    eb010080    ....    ADD      r0,r1,r0,LSL #2
        0x00001a5c:    f8504c40    P.@L    LDR      r4,[r0,#-0x40]
        0x00001a60:    f8940027    ..'.    LDRB     r0,[r4,#0x27]
        0x00001a64:    b1c8        ..      CBZ      r0,0x1a9a ; iic_master_txi_isr + 118
        0x00001a66:    f8940026    ..&.    LDRB     r0,[r4,#0x26]
        0x00001a6a:    2803        .(      CMP      r0,#3
        0x00001a6c:    d106        ..      BNE      0x1a7c ; iic_master_txi_isr + 88
        0x00001a6e:    f8940028    ..(.    LDRB     r0,[r4,#0x28]
        0x00001a72:    2802        .(      CMP      r0,#2
        0x00001a74:    d102        ..      BNE      0x1a7c ; iic_master_txi_isr + 88
        0x00001a76:    f8940030    ..0.    LDRB     r0,[r4,#0x30]
        0x00001a7a:    b370        p.      CBZ      r0,0x1ada ; iic_master_txi_isr + 182
        0x00001a7c:    f8940024    ..$.    LDRB     r0,[r4,#0x24]
        0x00001a80:    6921        !i      LDR      r1,[r4,#0x10]
        0x00001a82:    7488        .t      STRB     r0,[r1,#0x12]
        0x00001a84:    f8940028    ..(.    LDRB     r0,[r4,#0x28]
        0x00001a88:    f8941027    ..'.    LDRB     r1,[r4,#0x27]
        0x00001a8c:    3001        .0      ADDS     r0,#1
        0x00001a8e:    f8840028    ..(.    STRB     r0,[r4,#0x28]
        0x00001a92:    1e48        H.      SUBS     r0,r1,#1
        0x00001a94:    f8840027    ..'.    STRB     r0,[r4,#0x27]
        0x00001a98:    bdb0        ..      POP      {r4,r5,r7,pc}
        0x00001a9a:    f8940029    ..).    LDRB     r0,[r4,#0x29]
        0x00001a9e:    b9e0        ..      CBNZ     r0,0x1ada ; iic_master_txi_isr + 182
        0x00001aa0:    6820         h      LDR      r0,[r4,#0]
        0x00001aa2:    6b40        @k      LDR      r0,[r0,#0x34]
        0x00001aa4:    7b40        @{      LDRB     r0,[r0,#0xd]
        0x00001aa6:    2801        .(      CMP      r0,#1
        0x00001aa8:    d108        ..      BNE      0x1abc ; iic_master_txi_isr + 152
        0x00001aaa:    f894002b    ..+.    LDRB     r0,[r4,#0x2b]
        0x00001aae:    b928        (.      CBNZ     r0,0x1abc ; iic_master_txi_isr + 152
        0x00001ab0:    6a20         j      LDR      r0,[r4,#0x20]
        0x00001ab2:    b118        ..      CBZ      r0,0x1abc ; iic_master_txi_isr + 152
        0x00001ab4:    4620         F      MOV      r0,r4
        0x00001ab6:    2105        .!      MOVS     r1,#5
        0x00001ab8:    f7fffcf8    ....    BL       iic_master_notify ; 0x14ac
        0x00001abc:    69e0        .i      LDR      r0,[r4,#0x1c]
        0x00001abe:    b168        h.      CBZ      r0,0x1adc ; iic_master_txi_isr + 184
        0x00001ac0:    e9d40104    ....    LDRD     r0,r1,[r4,#0x10]
        0x00001ac4:    6a22        "j      LDR      r2,[r4,#0x20]
        0x00001ac6:    5c89        .\      LDRB     r1,[r1,r2]
        0x00001ac8:    7481        .t      STRB     r1,[r0,#0x12]
        0x00001aca:    e9d41007    ....    LDRD     r1,r0,[r4,#0x1c]
        0x00001ace:    3901        .9      SUBS     r1,#1
        0x00001ad0:    f1000001    ....    ADD      r0,r0,#1
        0x00001ad4:    e9c41007    ....    STRD     r1,r0,[r4,#0x1c]
        0x00001ad8:    d000        ..      BEQ      0x1adc ; iic_master_txi_isr + 184
        0x00001ada:    bdb0        ..      POP      {r4,r5,r7,pc}
        0x00001adc:    6920         i      LDR      r0,[r4,#0x10]
        0x00001ade:    79c1        .y      LDRB     r1,[r0,#7]
        0x00001ae0:    f001017f    ....    AND      r1,r1,#0x7f
        0x00001ae4:    71c1        .q      STRB     r1,[r0,#7]
        0x00001ae6:    6920         i      LDR      r0,[r4,#0x10]
        0x00001ae8:    f06f01be    o...    MVN      r1,#0xbe
        0x00001aec:    f9902007    ...     LDRSB    r2,[r0,#7]
        0x00001af0:    f1b23fff    ...?    CMP      r2,#0xffffffff
        0x00001af4:    dc03        ..      BGT      0x1afe ; iic_master_txi_isr + 218
        0x00001af6:    2900        .)      CMP      r1,#0
        0x00001af8:    f1010101    ....    ADD      r1,r1,#1
        0x00001afc:    d1f6        ..      BNE      0x1aec ; iic_master_txi_isr + 200
        0x00001afe:    6820         h      LDR      r0,[r4,#0]
        0x00001b00:    69c0        .i      LDR      r0,[r0,#0x1c]
        0x00001b02:    f8551020    U. .    LDR      r1,[r5,r0,LSL #2]
        0x00001b06:    f4213180    !..1    BIC      r1,r1,#0x10000
        0x00001b0a:    f8451020    E. .    STR      r1,[r5,r0,LSL #2]
        0x00001b0e:    f8550020    U. .    LDR      r0,[r5,r0,LSL #2]
        0x00001b12:    6820         h      LDR      r0,[r4,#0]
        0x00001b14:    69c0        .i      LDR      r0,[r0,#0x1c]
        0x00001b16:    2800        .(      CMP      r0,#0
        0x00001b18:    d40b        ..      BMI      0x1b32 ; iic_master_txi_isr + 270
        0x00001b1a:    f000011f    ....    AND      r1,r0,#0x1f
        0x00001b1e:    2201        ."      MOVS     r2,#1
        0x00001b20:    fa02f101    ....    LSL      r1,r2,r1
        0x00001b24:    f24e2280    N.."    MOV      r2,#0xe280
        0x00001b28:    0940        @.      LSRS     r0,r0,#5
        0x00001b2a:    f2ce0200    ....    MOVT     r2,#0xe000
        0x00001b2e:    f8421020    B. .    STR      r1,[r2,r0,LSL #2]
        0x00001b32:    6920         i      LDR      r0,[r4,#0x10]
        0x00001b34:    79c1        .y      LDRB     r1,[r0,#7]
        0x00001b36:    f0410140    A.@.    ORR      r1,r1,#0x40
        0x00001b3a:    71c1        .q      STRB     r1,[r0,#7]
        0x00001b3c:    bdb0        ..      POP      {r4,r5,r7,pc}
    main
        0x00001b3e:    b580        ..      PUSH     {r7,lr}
        0x00001b40:    f24040d4    @..@    MOV      r0,#0x4d4
        0x00001b44:    f2c20000    ....    MOVT     r0,#0x2000
        0x00001b48:    2100        .!      MOVS     r1,#0
        0x00001b4a:    6001        .`      STR      r1,[r0,#0]
        0x00001b4c:    f2404084    @..@    MOV      r0,#0x484
        0x00001b50:    f2c20000    ....    MOVT     r0,#0x2000
        0x00001b54:    f240428c    @..B    MOV      r2,#0x48c
        0x00001b58:    7001        .p      STRB     r1,[r0,#0]
        0x00001b5a:    f44f7080    O..p    MOV      r0,#0x100
        0x00001b5e:    f2c20200    ....    MOVT     r2,#0x2000
        0x00001b62:    2101        .!      MOVS     r1,#1
        0x00001b64:    f000ff98    ....    BL       xQueueCreateCountingSemaphoreStatic ; 0x2a98
        0x00001b68:    f2404188    @..A    MOVW     r1,#0x488
        0x00001b6c:    f2c20100    ....    MOVT     r1,#0x2000
        0x00001b70:    6008        .`      STR      r0,[r1,#0]
        0x00001b72:    b918        ..      CBNZ     r0,0x1b7c ; main + 62
        0x00001b74:    2000        .       MOVS     r0,#0
        0x00001b76:    2100        .!      MOVS     r1,#0
        0x00001b78:    f000fbf3    ....    BL       rtos_startup_err_callback ; 0x2362
        0x00001b7c:    f000f804    ....    BL       new_thread0_create ; 0x1b88
        0x00001b80:    f000feba    ....    BL       vTaskStartScheduler ; 0x28f8
        0x00001b84:    2000        .       MOVS     r0,#0
        0x00001b86:    bd80        ..      POP      {r7,pc}
    new_thread0_create
        0x00001b88:    b580        ..      PUSH     {r7,lr}
        0x00001b8a:    b084        ..      SUB      sp,sp,#0x10
        0x00001b8c:    f24040d4    @..@    MOV      r0,#0x4d4
        0x00001b90:    f2c20000    ....    MOVT     r0,#0x2000
        0x00001b94:    6801        .h      LDR      r1,[r0,#0]
        0x00001b96:    f2442370    D.p#    MOV      r3,#0x4270
        0x00001b9a:    3101        .1      ADDS     r1,#1
        0x00001b9c:    6001        .`      STR      r1,[r0,#0]
        0x00001b9e:    f6405128    @.(Q    MOV      r1,#0xd28
        0x00001ba2:    2001        .       MOVS     r0,#1
        0x00001ba4:    f2c20100    ....    MOVT     r1,#0x2000
        0x00001ba8:    e9cd0100    ....    STRD     r0,r1,[sp,#0]
        0x00001bac:    f641401d    A..@    MOV      r0,#0x1c1d
        0x00001bb0:    f2405cb4    @..\    MOV      r12,#0x5b4
        0x00001bb4:    f2c00000    ....    MOVT     r0,#0
        0x00001bb8:    a10c        ..      ADR      r1,{pc}+0x34 ; 0x1bec
        0x00001bba:    f2c00300    ....    MOVT     r3,#0
        0x00001bbe:    f44f7200    O..r    MOV      r2,#0x200
        0x00001bc2:    f2c20c00    ....    MOVT     r12,#0x2000
        0x00001bc6:    f8cdc008    ....    STR      r12,[sp,#8]
        0x00001bca:    f001faeb    ....    BL       xTaskCreateStatic ; 0x31a4
        0x00001bce:    f24051b0    @..Q    MOVW     r1,#0x5b0
        0x00001bd2:    f2c20100    ....    MOVT     r1,#0x2000
        0x00001bd6:    6008        .`      STR      r0,[r1,#0]
        0x00001bd8:    b108        ..      CBZ      r0,0x1bde ; new_thread0_create + 86
        0x00001bda:    b004        ..      ADD      sp,sp,#0x10
        0x00001bdc:    bd80        ..      POP      {r7,pc}
        0x00001bde:    2000        .       MOVS     r0,#0
        0x00001be0:    2100        .!      MOVS     r1,#0
        0x00001be2:    b004        ..      ADD      sp,sp,#0x10
        0x00001be4:    e8bd4080    ...@    POP      {r7,lr}
        0x00001be8:    f000bbbb    ....    B.W      rtos_startup_err_callback ; 0x2362
    $d
        0x00001bec:    2077654e    New     DCD    544695630
        0x00001bf0:    65726854    Thre    DCD    1701996628
        0x00001bf4:    00006461    ad..    DCD    25697
    $t
    new_thread0_entry
        0x00001bf8:    f7fffab4    ....    BL       debug_init ; 0x1164
        0x00001bfc:    2001        .       MOVS     r0,#1
        0x00001bfe:    f000fde9    ....    BL       vTaskDelay ; 0x27d4
        0x00001c02:    f7fefacd    ....    BL       OLED_Init ; 0x1a0
        0x00001c06:    a403        ..      ADR      r4,{pc}+0xe ; 0x1c14
        0x00001c08:    2001        .       MOVS     r0,#1
        0x00001c0a:    2101        .!      MOVS     r1,#1
        0x00001c0c:    4622        "F      MOV      r2,r4
        0x00001c0e:    f7fefc15    ....    BL       OLED_ShowString ; 0x43c
        0x00001c12:    e7f9        ..      B        0x1c08 ; new_thread0_entry + 16
    $d
        0x00001c14:    4c4c4548    HELL    DCD    1280066888
        0x00001c18:    0000004f    O...    DCD    79
    $t
    new_thread0_func
        0x00001c1c:    b510        ..      PUSH     {r4,lr}
        0x00001c1e:    4604        .F      MOV      r4,r0
        0x00001c20:    f000fb6e    ..n.    BL       rtos_startup_common_init ; 0x2300
        0x00001c24:    4620         F      MOV      r0,r4
        0x00001c26:    e8bd4010    ...@    POP      {r4,lr}
        0x00001c2a:    f7ffbfe5    ....    B.W      new_thread0_entry ; 0x1bf8
    prvAddCurrentTaskToDelayedList
        0x00001c2e:    e92d43f0    -..C    PUSH     {r4-r9,lr}
        0x00001c32:    b081        ..      SUB      sp,sp,#4
        0x00001c34:    460e        .F      MOV      r6,r1
        0x00001c36:    f6405118    @..Q    MOV      r1,#0xd18
        0x00001c3a:    f2c20100    ....    MOVT     r1,#0x2000
        0x00001c3e:    680d        .h      LDR      r5,[r1,#0]
        0x00001c40:    f24061e0    @..a    MOVW     r1,#0x6e0
        0x00001c44:    f2c20100    ....    MOVT     r1,#0x2000
        0x00001c48:    f8d18000    ....    LDR      r8,[r1,#0]
        0x00001c4c:    f24061e4    @..a    MOV      r1,#0x6e4
        0x00001c50:    f24064d8    @..d    MOVW     r4,#0x6d8
        0x00001c54:    f2c20100    ....    MOVT     r1,#0x2000
        0x00001c58:    f2c20400    ....    MOVT     r4,#0x2000
        0x00001c5c:    f8d19000    ....    LDR      r9,[r1,#0]
        0x00001c60:    6821        !h      LDR      r1,[r4,#0]
        0x00001c62:    4607        .F      MOV      r7,r0
        0x00001c64:    1d08        ..      ADDS     r0,r1,#4
        0x00001c66:    f000fc72    ..r.    BL       uxListRemove ; 0x254e
        0x00001c6a:    1c78        x.      ADDS     r0,r7,#1
        0x00001c6c:    d116        ..      BNE      0x1c9c ; prvAddCurrentTaskToDelayedList + 110
        0x00001c6e:    b1ae        ..      CBZ      r6,0x1c9c ; prvAddCurrentTaskToDelayedList + 110
        0x00001c70:    f64040f0    @..@    MOVW     r0,#0xcf0
        0x00001c74:    f2c20000    ....    MOVT     r0,#0x2000
        0x00001c78:    e9d01200    ....    LDRD     r1,r2,[r0,#0]
        0x00001c7c:    6823        #h      LDR      r3,[r4,#0]
        0x00001c7e:    3101        .1      ADDS     r1,#1
        0x00001c80:    609a        .`      STR      r2,[r3,#8]
        0x00001c82:    6893        .h      LDR      r3,[r2,#8]
        0x00001c84:    6827        'h      LDR      r7,[r4,#0]
        0x00001c86:    60fb        .`      STR      r3,[r7,#0xc]
        0x00001c88:    6827        'h      LDR      r7,[r4,#0]
        0x00001c8a:    3704        .7      ADDS     r7,#4
        0x00001c8c:    605f        _`      STR      r7,[r3,#4]
        0x00001c8e:    6823        #h      LDR      r3,[r4,#0]
        0x00001c90:    3304        .3      ADDS     r3,#4
        0x00001c92:    6093        .`      STR      r3,[r2,#8]
        0x00001c94:    6822        "h      LDR      r2,[r4,#0]
        0x00001c96:    6001        .`      STR      r1,[r0,#0]
        0x00001c98:    6150        Pa      STR      r0,[r2,#0x14]
        0x00001c9a:    e017        ..      B        0x1ccc ; prvAddCurrentTaskToDelayedList + 158
        0x00001c9c:    6820         h      LDR      r0,[r4,#0]
        0x00001c9e:    19ed        ..      ADDS     r5,r5,r7
        0x00001ca0:    6045        E`      STR      r5,[r0,#4]
        0x00001ca2:    6820         h      LDR      r0,[r4,#0]
        0x00001ca4:    f1000104    ....    ADD      r1,r0,#4
        0x00001ca8:    d305        ..      BCC      0x1cb6 ; prvAddCurrentTaskToDelayedList + 136
        0x00001caa:    4648        HF      MOV      r0,r9
        0x00001cac:    b001        ..      ADD      sp,sp,#4
        0x00001cae:    e8bd43f0    ...C    POP      {r4-r9,lr}
        0x00001cb2:    f000bc91    ....    B.W      vListInsert ; 0x25d8
        0x00001cb6:    4640        @F      MOV      r0,r8
        0x00001cb8:    f000fc8e    ....    BL       vListInsert ; 0x25d8
        0x00001cbc:    f640407c    @.|@    MOV      r0,#0xc7c
        0x00001cc0:    f2c20000    ....    MOVT     r0,#0x2000
        0x00001cc4:    6801        .h      LDR      r1,[r0,#0]
        0x00001cc6:    428d        .B      CMP      r5,r1
        0x00001cc8:    bf38        8.      IT       CC
        0x00001cca:    6005        .`      STRCC    r5,[r0,#0]
        0x00001ccc:    b001        ..      ADD      sp,sp,#4
        0x00001cce:    e8bd83f0    ....    POP      {r4-r9,pc}
        0x00001cd2:    0000        ..      MOVS     r0,r0
    prvCheckForValidListAndQueue
        0x00001cd4:    b570        p.      PUSH     {r4-r6,lr}
        0x00001cd6:    b082        ..      SUB      sp,sp,#8
        0x00001cd8:    f000fc9b    ....    BL       vPortEnterCritical ; 0x2612
        0x00001cdc:    f640561c    @..V    MOV      r6,#0xd1c
        0x00001ce0:    f2c20600    ....    MOVT     r6,#0x2000
        0x00001ce4:    6830        0h      LDR      r0,[r6,#0]
        0x00001ce6:    bb50        P.      CBNZ     r0,0x1d3e ; prvCheckForValidListAndQueue + 106
        0x00001ce8:    f6404428    @.(D    MOV      r4,#0xc28
        0x00001cec:    f2c20400    ....    MOVT     r4,#0x2000
        0x00001cf0:    4620         F      MOV      r0,r4
        0x00001cf2:    f000fc62    ..b.    BL       vListInitialise ; 0x25ba
        0x00001cf6:    f640453c    @.<E    MOV      r5,#0xc3c
        0x00001cfa:    f2c20500    ....    MOVT     r5,#0x2000
        0x00001cfe:    4628        (F      MOV      r0,r5
        0x00001d00:    f000fc5b    ..[.    BL       vListInitialise ; 0x25ba
        0x00001d04:    f24060dc    @..`    MOV      r0,#0x6dc
        0x00001d08:    f2c20000    ....    MOVT     r0,#0x2000
        0x00001d0c:    6004        .`      STR      r4,[r0,#0]
        0x00001d0e:    f24060e8    @..`    MOVW     r0,#0x6e8
        0x00001d12:    f2c20000    ....    MOVT     r0,#0x2000
        0x00001d16:    f2406214    @..b    MOV      r2,#0x614
        0x00001d1a:    f240638c    @..c    MOV      r3,#0x68c
        0x00001d1e:    6005        .`      STR      r5,[r0,#0]
        0x00001d20:    2500        .%      MOVS     r5,#0
        0x00001d22:    200a        .       MOVS     r0,#0xa
        0x00001d24:    f2c20200    ....    MOVT     r2,#0x2000
        0x00001d28:    210c        .!      MOVS     r1,#0xc
        0x00001d2a:    f2c20300    ....    MOVT     r3,#0x2000
        0x00001d2e:    9500        ..      STR      r5,[sp,#0]
        0x00001d30:    f000fed4    ....    BL       xQueueGenericCreateStatic ; 0x2adc
        0x00001d34:    6030        0`      STR      r0,[r6,#0]
        0x00001d36:    b110        ..      CBZ      r0,0x1d3e ; prvCheckForValidListAndQueue + 106
        0x00001d38:    a103        ..      ADR      r1,{pc}+0x10 ; 0x1d48
        0x00001d3a:    f000fcf9    ....    BL       vQueueAddToRegistry ; 0x2730
        0x00001d3e:    b002        ..      ADD      sp,sp,#8
        0x00001d40:    e8bd4070    ..p@    POP      {r4-r6,lr}
        0x00001d44:    f000bc8c    ....    B.W      vPortExitCritical ; 0x2660
    $d
        0x00001d48:    51726d54    TmrQ    DCD    1366453588
        0x00001d4c:    00000000    ....    DCD    0
    $t
    prvCheckTasksWaitingTermination
        0x00001d50:    b570        p.      PUSH     {r4-r6,lr}
        0x00001d52:    f2407458    @.Xt    MOVW     r4,#0x758
        0x00001d56:    f2c20400    ....    MOVT     r4,#0x2000
        0x00001d5a:    6820         h      LDR      r0,[r4,#0]
        0x00001d5c:    b1d0        ..      CBZ      r0,0x1d94 ; prvCheckTasksWaitingTermination + 68
        0x00001d5e:    f6405504    @..U    MOV      r5,#0xd04
        0x00001d62:    f2407654    @.Tv    MOV      r6,#0x754
        0x00001d66:    f2c20500    ....    MOVT     r5,#0x2000
        0x00001d6a:    f2c20600    ....    MOVT     r6,#0x2000
        0x00001d6e:    bf00        ..      NOP      
        0x00001d70:    f000fc4f    ..O.    BL       vPortEnterCritical ; 0x2612
        0x00001d74:    68e8        .h      LDR      r0,[r5,#0xc]
        0x00001d76:    68c0        .h      LDR      r0,[r0,#0xc]
        0x00001d78:    3004        .0      ADDS     r0,#4
        0x00001d7a:    f000fbe8    ....    BL       uxListRemove ; 0x254e
        0x00001d7e:    6830        0h      LDR      r0,[r6,#0]
        0x00001d80:    3801        .8      SUBS     r0,#1
        0x00001d82:    6030        0`      STR      r0,[r6,#0]
        0x00001d84:    6820         h      LDR      r0,[r4,#0]
        0x00001d86:    3801        .8      SUBS     r0,#1
        0x00001d88:    6020         `      STR      r0,[r4,#0]
        0x00001d8a:    f000fc69    ..i.    BL       vPortExitCritical ; 0x2660
        0x00001d8e:    6820         h      LDR      r0,[r4,#0]
        0x00001d90:    2800        .(      CMP      r0,#0
        0x00001d92:    d1ed        ..      BNE      0x1d70 ; prvCheckTasksWaitingTermination + 32
        0x00001d94:    bd70        p.      POP      {r4-r6,pc}
    prvCopyDataToQueue
        0x00001d96:    b570        p.      PUSH     {r4-r6,lr}
        0x00001d98:    6b86        .k      LDR      r6,[r0,#0x38]
        0x00001d9a:    6c03        .l      LDR      r3,[r0,#0x40]
        0x00001d9c:    4604        .F      MOV      r4,r0
        0x00001d9e:    b343        C.      CBZ      r3,0x1df2 ; prvCopyDataToQueue + 92
        0x00001da0:    4615        .F      MOV      r5,r2
        0x00001da2:    b1ca        ..      CBZ      r2,0x1dd8 ; prvCopyDataToQueue + 66
        0x00001da4:    68e0        .h      LDR      r0,[r4,#0xc]
        0x00001da6:    461a        .F      MOV      r2,r3
        0x00001da8:    f7fef96e    ..n.    BL       __aeabi_memcpy ; 0x88
        0x00001dac:    68e1        .h      LDR      r1,[r4,#0xc]
        0x00001dae:    6c20         l      LDR      r0,[r4,#0x40]
        0x00001db0:    6822        "h      LDR      r2,[r4,#0]
        0x00001db2:    1a09        ..      SUBS     r1,r1,r0
        0x00001db4:    4291        .B      CMP      r1,r2
        0x00001db6:    60e1        .`      STR      r1,[r4,#0xc]
        0x00001db8:    d203        ..      BCS      0x1dc2 ; prvCopyDataToQueue + 44
        0x00001dba:    68a1        .h      LDR      r1,[r4,#8]
        0x00001dbc:    4240        @B      RSBS     r0,r0,#0
        0x00001dbe:    4408        .D      ADD      r0,r0,r1
        0x00001dc0:    60e0        .`      STR      r0,[r4,#0xc]
        0x00001dc2:    1ea8        ..      SUBS     r0,r5,#2
        0x00001dc4:    fab0f080    ....    CLZ      r0,r0
        0x00001dc8:    0940        @.      LSRS     r0,r0,#5
        0x00001dca:    4631        1F      MOV      r1,r6
        0x00001dcc:    2e00        ..      CMP      r6,#0
        0x00001dce:    bf18        ..      IT       NE
        0x00001dd0:    2101        .!      MOVNE    r1,#1
        0x00001dd2:    4008        .@      ANDS     r0,r0,r1
        0x00001dd4:    1a36        6.      SUBS     r6,r6,r0
        0x00001dd6:    e00c        ..      B        0x1df2 ; prvCopyDataToQueue + 92
        0x00001dd8:    6860        `h      LDR      r0,[r4,#4]
        0x00001dda:    461a        .F      MOV      r2,r3
        0x00001ddc:    f7fef954    ..T.    BL       __aeabi_memcpy ; 0x88
        0x00001de0:    e9d40101    ....    LDRD     r0,r1,[r4,#4]
        0x00001de4:    6c22        "l      LDR      r2,[r4,#0x40]
        0x00001de6:    4410        .D      ADD      r0,r0,r2
        0x00001de8:    4288        .B      CMP      r0,r1
        0x00001dea:    6060        ``      STR      r0,[r4,#4]
        0x00001dec:    d301        ..      BCC      0x1df2 ; prvCopyDataToQueue + 92
        0x00001dee:    6820         h      LDR      r0,[r4,#0]
        0x00001df0:    6060        ``      STR      r0,[r4,#4]
        0x00001df2:    1c70        p.      ADDS     r0,r6,#1
        0x00001df4:    63a0        .c      STR      r0,[r4,#0x38]
        0x00001df6:    bd70        p.      POP      {r4-r6,pc}
    prvIdleTask
        0x00001df8:    f24064ec    @..d    MOV      r4,#0x6ec
        0x00001dfc:    f64e5504    N..U    MOV      r5,#0xed04
        0x00001e00:    f2c20400    ....    MOVT     r4,#0x2000
        0x00001e04:    f2ce0500    ....    MOVT     r5,#0xe000
        0x00001e08:    f04f5680    O..V    MOV      r6,#0x10000000
        0x00001e0c:    f7ffffa0    ....    BL       prvCheckTasksWaitingTermination ; 0x1d50
        0x00001e10:    6820         h      LDR      r0,[r4,#0]
        0x00001e12:    2802        .(      CMP      r0,#2
        0x00001e14:    d304        ..      BCC      0x1e20 ; prvIdleTask + 40
        0x00001e16:    602e        .`      STR      r6,[r5,#0]
        0x00001e18:    f3bf8f4f    ..O.    DSB      
        0x00001e1c:    f3bf8f6f    ..o.    ISB      
        0x00001e20:    f000fbbf    ....    BL       vApplicationIdleHook ; 0x25a2
        0x00001e24:    e7f2        ..      B        0x1e0c ; prvIdleTask + 20
    prvInsertTimerInActiveList
        0x00001e26:    468c        .F      MOV      r12,r1
        0x00001e28:    4601        .F      MOV      r1,r0
        0x00001e2a:    f841cf04    A...    STR      r12,[r1,#4]!
        0x00001e2e:    4594        .E      CMP      r12,r2
        0x00001e30:    6100        .a      STR      r0,[r0,#0x10]
        0x00001e32:    d908        ..      BLS      0x1e46 ; prvInsertTimerInActiveList + 32
        0x00001e34:    f24060dc    @..`    MOV      r0,#0x6dc
        0x00001e38:    429a        .B      CMP      r2,r3
        0x00001e3a:    f2c20000    ....    MOVT     r0,#0x2000
        0x00001e3e:    d20a        ..      BCS      0x1e56 ; prvInsertTimerInActiveList + 48
        0x00001e40:    459c        .E      CMP      r12,r3
        0x00001e42:    d20e        ..      BCS      0x1e62 ; prvInsertTimerInActiveList + 60
        0x00001e44:    e007        ..      B        0x1e56 ; prvInsertTimerInActiveList + 48
        0x00001e46:    6980        .i      LDR      r0,[r0,#0x18]
        0x00001e48:    1ad2        ..      SUBS     r2,r2,r3
        0x00001e4a:    4282        .B      CMP      r2,r0
        0x00001e4c:    d209        ..      BCS      0x1e62 ; prvInsertTimerInActiveList + 60
        0x00001e4e:    f24060e8    @..`    MOVW     r0,#0x6e8
        0x00001e52:    f2c20000    ....    MOVT     r0,#0x2000
        0x00001e56:    b580        ..      PUSH     {r7,lr}
        0x00001e58:    6800        .h      LDR      r0,[r0,#0]
        0x00001e5a:    f000fbbd    ....    BL       vListInsert ; 0x25d8
        0x00001e5e:    2000        .       MOVS     r0,#0
        0x00001e60:    bd80        ..      POP      {r7,pc}
        0x00001e62:    2001        .       MOVS     r0,#1
        0x00001e64:    4770        pG      BX       lr
    prvProcessExpiredTimer
        0x00001e66:    b570        p.      PUSH     {r4-r6,lr}
        0x00001e68:    f24062dc    @..b    MOV      r2,#0x6dc
        0x00001e6c:    f2c20200    ....    MOVT     r2,#0x2000
        0x00001e70:    6812        .h      LDR      r2,[r2,#0]
        0x00001e72:    4606        .F      MOV      r6,r0
        0x00001e74:    68d2        .h      LDR      r2,[r2,#0xc]
        0x00001e76:    460d        .F      MOV      r5,r1
        0x00001e78:    68d4        .h      LDR      r4,[r2,#0xc]
        0x00001e7a:    1d20         .      ADDS     r0,r4,#4
        0x00001e7c:    f000fb67    ..g.    BL       uxListRemove ; 0x254e
        0x00001e80:    f8940024    ..$.    LDRB     r0,[r4,#0x24]
        0x00001e84:    0741        A.      LSLS     r1,r0,#29
        0x00001e86:    d404        ..      BMI      0x1e92 ; prvProcessExpiredTimer + 44
        0x00001e88:    f00000fa    ....    AND      r0,r0,#0xfa
        0x00001e8c:    f8840024    ..$.    STRB     r0,[r4,#0x24]
        0x00001e90:    e004        ..      B        0x1e9c ; prvProcessExpiredTimer + 54
        0x00001e92:    4620         F      MOV      r0,r4
        0x00001e94:    4631        1F      MOV      r1,r6
        0x00001e96:    462a        *F      MOV      r2,r5
        0x00001e98:    f000f806    ....    BL       prvReloadTimer ; 0x1ea8
        0x00001e9c:    6a21        !j      LDR      r1,[r4,#0x20]
        0x00001e9e:    4620         F      MOV      r0,r4
        0x00001ea0:    e8bd4070    ..p@    POP      {r4-r6,lr}
        0x00001ea4:    4708        .G      BX       r1
        0x00001ea6:    0000        ..      MOVS     r0,r0
    prvReloadTimer
        0x00001ea8:    b570        p.      PUSH     {r4-r6,lr}
        0x00001eaa:    4605        .F      MOV      r5,r0
        0x00001eac:    6980        .i      LDR      r0,[r0,#0x18]
        0x00001eae:    4614        .F      MOV      r4,r2
        0x00001eb0:    460e        .F      MOV      r6,r1
        0x00001eb2:    4401        .D      ADD      r1,r1,r0
        0x00001eb4:    4628        (F      MOV      r0,r5
        0x00001eb6:    bf00        ..      NOP      
        0x00001eb8:    4633        3F      MOV      r3,r6
        0x00001eba:    f7ffffb4    ....    BL       prvInsertTimerInActiveList ; 0x1e26
        0x00001ebe:    b148        H.      CBZ      r0,0x1ed4 ; prvReloadTimer + 44
        0x00001ec0:    69a8        .i      LDR      r0,[r5,#0x18]
        0x00001ec2:    6a29        )j      LDR      r1,[r5,#0x20]
        0x00001ec4:    4406        .D      ADD      r6,r6,r0
        0x00001ec6:    4628        (F      MOV      r0,r5
        0x00001ec8:    4788        .G      BLX      r1
        0x00001eca:    69a8        .i      LDR      r0,[r5,#0x18]
        0x00001ecc:    4622        "F      MOV      r2,r4
        0x00001ece:    1981        ..      ADDS     r1,r0,r6
        0x00001ed0:    4628        (F      MOV      r0,r5
        0x00001ed2:    e7f1        ..      B        0x1eb8 ; prvReloadTimer + 16
        0x00001ed4:    bd70        p.      POP      {r4-r6,pc}
        0x00001ed6:    0000        ..      MOVS     r0,r0
    prvSampleTimeNow
        0x00001ed8:    b5f0        ..      PUSH     {r4-r7,lr}
        0x00001eda:    b081        ..      SUB      sp,sp,#4
        0x00001edc:    4604        .F      MOV      r4,r0
        0x00001ede:    f001faa1    ....    BL       xTaskGetTickCount ; 0x3424
        0x00001ee2:    f24066d4    @..f    MOV      r6,#0x6d4
        0x00001ee6:    f2c20600    ....    MOVT     r6,#0x2000
        0x00001eea:    6831        1h      LDR      r1,[r6,#0]
        0x00001eec:    4605        .F      MOV      r5,r0
        0x00001eee:    4288        .B      CMP      r0,r1
        0x00001ef0:    d20e        ..      BCS      0x1f10 ; prvSampleTimeNow + 56
        0x00001ef2:    f24067dc    @..g    MOV      r7,#0x6dc
        0x00001ef6:    f2c20700    ....    MOVT     r7,#0x2000
        0x00001efa:    bf00        ..      NOP      
        0x00001efc:    6838        8h      LDR      r0,[r7,#0]
        0x00001efe:    6801        .h      LDR      r1,[r0,#0]
        0x00001f00:    b141        A.      CBZ      r1,0x1f14 ; prvSampleTimeNow + 60
        0x00001f02:    68c0        .h      LDR      r0,[r0,#0xc]
        0x00001f04:    f04f31ff    O..1    MOV      r1,#0xffffffff
        0x00001f08:    6800        .h      LDR      r0,[r0,#0]
        0x00001f0a:    f7ffffac    ....    BL       prvProcessExpiredTimer ; 0x1e66
        0x00001f0e:    e7f5        ..      B        0x1efc ; prvSampleTimeNow + 36
        0x00001f10:    2000        .       MOVS     r0,#0
        0x00001f12:    e007        ..      B        0x1f24 ; prvSampleTimeNow + 76
        0x00001f14:    f24061e8    @..a    MOVW     r1,#0x6e8
        0x00001f18:    f2c20100    ....    MOVT     r1,#0x2000
        0x00001f1c:    680a        .h      LDR      r2,[r1,#0]
        0x00001f1e:    6008        .`      STR      r0,[r1,#0]
        0x00001f20:    2001        .       MOVS     r0,#1
        0x00001f22:    603a        :`      STR      r2,[r7,#0]
        0x00001f24:    6020         `      STR      r0,[r4,#0]
        0x00001f26:    4628        (F      MOV      r0,r5
        0x00001f28:    6035        5`      STR      r5,[r6,#0]
        0x00001f2a:    b001        ..      ADD      sp,sp,#4
        0x00001f2c:    bdf0        ..      POP      {r4-r7,pc}
        0x00001f2e:    0000        ..      MOVS     r0,r0
    prvTaskExitError
        0x00001f30:    be00        ..      BKPT     #0
        0x00001f32:    bf00        ..      NOP      
        0x00001f34:    e7fe        ..      B        0x1f34 ; prvTaskExitError + 4
        0x00001f36:    0000        ..      MOVS     r0,r0
    prvTimerTask
        0x00001f38:    b084        ..      SUB      sp,sp,#0x10
        0x00001f3a:    f24068dc    @..h    MOV      r8,#0x6dc
        0x00001f3e:    f640551c    @..U    MOV      r5,#0xd1c
        0x00001f42:    f2c20800    ....    MOVT     r8,#0x2000
        0x00001f46:    ac01        ..      ADD      r4,sp,#4
        0x00001f48:    f2c20500    ....    MOVT     r5,#0x2000
        0x00001f4c:    f04f0900    O...    MOV      r9,#0
        0x00001f50:    46eb        .F      MOV      r11,sp
        0x00001f52:    bf00        ..      NOP      
        0x00001f54:    f8d80000    ....    LDR      r0,[r8,#0]
        0x00001f58:    f8d0a000    ....    LDR      r10,[r0,#0]
        0x00001f5c:    f1ba0f00    ....    CMP      r10,#0
        0x00001f60:    bf1a        ..      ITTE     NE
        0x00001f62:    68c0        .h      LDRNE    r0,[r0,#0xc]
        0x00001f64:    6806        .h      LDRNE    r6,[r0,#0]
        0x00001f66:    2600        .&      MOVEQ    r6,#0
        0x00001f68:    f000fd22    ..".    BL       vTaskSuspendAll ; 0x29b0
        0x00001f6c:    4620         F      MOV      r0,r4
        0x00001f6e:    f7ffffb3    ....    BL       prvSampleTimeNow ; 0x1ed8
        0x00001f72:    9901        ..      LDR      r1,[sp,#4]
        0x00001f74:    b111        ..      CBZ      r1,0x1f7c ; prvTimerTask + 68
        0x00001f76:    f001fb9d    ....    BL       xTaskResumeAll ; 0x36b4
        0x00001f7a:    e02d        -.      B        0x1fd8 ; prvTimerTask + 160
        0x00001f7c:    4607        .F      MOV      r7,r0
        0x00001f7e:    f1ba0f00    ....    CMP      r10,#0
        0x00001f82:    d008        ..      BEQ      0x1f96 ; prvTimerTask + 94
        0x00001f84:    42be        .B      CMP      r6,r7
        0x00001f86:    d806        ..      BHI      0x1f96 ; prvTimerTask + 94
        0x00001f88:    f001fb94    ....    BL       xTaskResumeAll ; 0x36b4
        0x00001f8c:    4630        0F      MOV      r0,r6
        0x00001f8e:    4639        9F      MOV      r1,r7
        0x00001f90:    f7ffff69    ..i.    BL       prvProcessExpiredTimer ; 0x1e66
        0x00001f94:    e020         .      B        0x1fd8 ; prvTimerTask + 160
        0x00001f96:    f1ba0f00    ....    CMP      r10,#0
        0x00001f9a:    d001        ..      BEQ      0x1fa0 ; prvTimerTask + 104
        0x00001f9c:    2200        ."      MOVS     r2,#0
        0x00001f9e:    e008        ..      B        0x1fb2 ; prvTimerTask + 122
        0x00001fa0:    f24060e8    @..`    MOVW     r0,#0x6e8
        0x00001fa4:    f2c20000    ....    MOVT     r0,#0x2000
        0x00001fa8:    6800        .h      LDR      r0,[r0,#0]
        0x00001faa:    6800        .h      LDR      r0,[r0,#0]
        0x00001fac:    fab0f080    ....    CLZ      r0,r0
        0x00001fb0:    0942        B.      LSRS     r2,r0,#5
        0x00001fb2:    6828        (h      LDR      r0,[r5,#0]
        0x00001fb4:    1bf1        ..      SUBS     r1,r6,r7
        0x00001fb6:    f000fbea    ....    BL       vQueueWaitForMessageRestricted ; 0x278e
        0x00001fba:    f001fb7b    ..{.    BL       xTaskResumeAll ; 0x36b4
        0x00001fbe:    b958        X.      CBNZ     r0,0x1fd8 ; prvTimerTask + 160
        0x00001fc0:    f64e5104    N..Q    MOV      r1,#0xed04
        0x00001fc4:    f04f5080    O..P    MOV      r0,#0x10000000
        0x00001fc8:    f2ce0100    ....    MOVT     r1,#0xe000
        0x00001fcc:    6008        .`      STR      r0,[r1,#0]
        0x00001fce:    f3bf8f4f    ..O.    DSB      
        0x00001fd2:    f3bf8f6f    ..o.    ISB      
        0x00001fd6:    bf00        ..      NOP      
        0x00001fd8:    6828        (h      LDR      r0,[r5,#0]
        0x00001fda:    e9cd9902    ....    STRD     r9,r9,[sp,#8]
        0x00001fde:    f8cd9004    ....    STR      r9,[sp,#4]
        0x00001fe2:    bf00        ..      NOP      
        0x00001fe4:    4621        !F      MOV      r1,r4
        0x00001fe6:    2200        ."      MOVS     r2,#0
        0x00001fe8:    f000ff06    ....    BL       xQueueReceive ; 0x2df8
        0x00001fec:    2800        .(      CMP      r0,#0
        0x00001fee:    d0b1        ..      BEQ      0x1f54 ; prvTimerTask + 28
        0x00001ff0:    9801        ..      LDR      r0,[sp,#4]
        0x00001ff2:    2800        .(      CMP      r0,#0
        0x00001ff4:    d44c        L.      BMI      0x2090 ; prvTimerTask + 344
        0x00001ff6:    9e03        ..      LDR      r6,[sp,#0xc]
        0x00001ff8:    6970        pi      LDR      r0,[r6,#0x14]
        0x00001ffa:    b110        ..      CBZ      r0,0x2002 ; prvTimerTask + 202
        0x00001ffc:    1d30        0.      ADDS     r0,r6,#4
        0x00001ffe:    f000faa6    ....    BL       uxListRemove ; 0x254e
        0x00002002:    4658        XF      MOV      r0,r11
        0x00002004:    f7ffff68    ..h.    BL       prvSampleTimeNow ; 0x1ed8
        0x00002008:    9901        ..      LDR      r1,[sp,#4]
        0x0000200a:    3901        .9      SUBS     r1,#1
        0x0000200c:    2908        .)      CMP      r1,#8
        0x0000200e:    d83f        ?.      BHI      0x2090 ; prvTimerTask + 344
        0x00002010:    4607        .F      MOV      r7,r0
        0x00002012:    e8dff001    ....    TBB      [pc,r1]
    $d
        0x00002016:    0505        ..      DCW    1285
        0x00002018:    051c231c    .#..    DCD    85730076
        0x0000201c:    00231c05    ..#.    DCD    2300933
    $t
        0x00002020:    f8960024    ..$.    LDRB     r0,[r6,#0x24]
        0x00002024:    9b02        ..      LDR      r3,[sp,#8]
        0x00002026:    69b1        .i      LDR      r1,[r6,#0x18]
        0x00002028:    f0400001    @...    ORR      r0,r0,#1
        0x0000202c:    f8860024    ..$.    STRB     r0,[r6,#0x24]
        0x00002030:    4419        .D      ADD      r1,r1,r3
        0x00002032:    4630        0F      MOV      r0,r6
        0x00002034:    463a        :F      MOV      r2,r7
        0x00002036:    f7fffef6    ....    BL       prvInsertTimerInActiveList ; 0x1e26
        0x0000203a:    b348        H.      CBZ      r0,0x2090 ; prvTimerTask + 344
        0x0000203c:    f8960024    ..$.    LDRB     r0,[r6,#0x24]
        0x00002040:    0741        A.      LSLS     r1,r0,#29
        0x00002042:    d41b        ..      BMI      0x207c ; prvTimerTask + 324
        0x00002044:    f00000fa    ....    AND      r0,r0,#0xfa
        0x00002048:    f8860024    ..$.    STRB     r0,[r6,#0x24]
        0x0000204c:    e01d        ..      B        0x208a ; prvTimerTask + 338
        0x0000204e:    f8960024    ..$.    LDRB     r0,[r6,#0x24]
        0x00002052:    f00000fe    ....    AND      r0,r0,#0xfe
        0x00002056:    f8860024    ..$.    STRB     r0,[r6,#0x24]
        0x0000205a:    e019        ..      B        0x2090 ; prvTimerTask + 344
        0x0000205c:    f8960024    ..$.    LDRB     r0,[r6,#0x24]
        0x00002060:    f0400101    @...    ORR      r1,r0,#1
        0x00002064:    9802        ..      LDR      r0,[sp,#8]
        0x00002066:    f8861024    ..$.    STRB     r1,[r6,#0x24]
        0x0000206a:    61b0        .a      STR      r0,[r6,#0x18]
        0x0000206c:    b190        ..      CBZ      r0,0x2094 ; prvTimerTask + 348
        0x0000206e:    19c1        ..      ADDS     r1,r0,r7
        0x00002070:    4630        0F      MOV      r0,r6
        0x00002072:    463a        :F      MOV      r2,r7
        0x00002074:    463b        ;F      MOV      r3,r7
        0x00002076:    f7fffed6    ....    BL       prvInsertTimerInActiveList ; 0x1e26
        0x0000207a:    e009        ..      B        0x2090 ; prvTimerTask + 344
        0x0000207c:    9802        ..      LDR      r0,[sp,#8]
        0x0000207e:    69b1        .i      LDR      r1,[r6,#0x18]
        0x00002080:    463a        :F      MOV      r2,r7
        0x00002082:    4401        .D      ADD      r1,r1,r0
        0x00002084:    4630        0F      MOV      r0,r6
        0x00002086:    f7ffff0f    ....    BL       prvReloadTimer ; 0x1ea8
        0x0000208a:    6a31        1j      LDR      r1,[r6,#0x20]
        0x0000208c:    4630        0F      MOV      r0,r6
        0x0000208e:    4788        .G      BLX      r1
        0x00002090:    6828        (h      LDR      r0,[r5,#0]
        0x00002092:    e7a7        ..      B        0x1fe4 ; prvTimerTask + 172
        0x00002094:    f2447106    D..q    MOV      r1,#0x4706
        0x00002098:    a003        ..      ADR      r0,{pc}+0x10 ; 0x20a8
        0x0000209a:    f2c00100    ....    MOVT     r1,#0
        0x0000209e:    f44f6282    O..b    MOV      r2,#0x410
        0x000020a2:    f7feff05    ....    BL       __aeabi_assert ; 0xeb0
        0x000020a6:    bf00        ..      NOP      
    $d
        0x000020a8:    78702028    ( px    DCD    2020614184
        0x000020ac:    656d6954    Time    DCD    1701669204
        0x000020b0:    783e2d72    r->x    DCD    2017340786
        0x000020b4:    656d6954    Time    DCD    1701669204
        0x000020b8:    72655072    rPer    DCD    1919242354
        0x000020bc:    49646f69    iodI    DCD    1231318889
        0x000020c0:    6369546e    nTic    DCD    1667847278
        0x000020c4:    3e20736b    ks >    DCD    1042314091
        0x000020c8:    29203020     0 )    DCD    689975328
        0x000020cc:    00000000    ....    DCD    0
    $t
    prvUnlockQueue
        0x000020d0:    b5f0        ..      PUSH     {r4-r7,lr}
        0x000020d2:    b081        ..      SUB      sp,sp,#4
        0x000020d4:    4604        .F      MOV      r4,r0
        0x000020d6:    f000fa9c    ....    BL       vPortEnterCritical ; 0x2612
        0x000020da:    f9946045    ..E`    LDRSB    r6,[r4,#0x45]
        0x000020de:    2e01        ..      CMP      r6,#1
        0x000020e0:    db0e        ..      BLT      0x2100 ; prvUnlockQueue + 48
        0x000020e2:    f1040524    ..$.    ADD      r5,r4,#0x24
        0x000020e6:    bf00        ..      NOP      
        0x000020e8:    6828        (h      LDR      r0,[r5,#0]
        0x000020ea:    b148        H.      CBZ      r0,0x2100 ; prvUnlockQueue + 48
        0x000020ec:    4628        (F      MOV      r0,r5
        0x000020ee:    f001fa68    ..h.    BL       xTaskRemoveFromEventList ; 0x35c2
        0x000020f2:    b108        ..      CBZ      r0,0x20f8 ; prvUnlockQueue + 40
        0x000020f4:    f000fba6    ....    BL       vTaskMissedYield ; 0x2844
        0x000020f8:    b270        p.      SXTB     r0,r6
        0x000020fa:    3e01        .>      SUBS     r6,#1
        0x000020fc:    2801        .(      CMP      r0,#1
        0x000020fe:    dcf3        ..      BGT      0x20e8 ; prvUnlockQueue + 24
        0x00002100:    26ff        .&      MOVS     r6,#0xff
        0x00002102:    f8846045    ..E`    STRB     r6,[r4,#0x45]
        0x00002106:    f000faab    ....    BL       vPortExitCritical ; 0x2660
        0x0000210a:    f000fa82    ....    BL       vPortEnterCritical ; 0x2612
        0x0000210e:    f9947044    ..Dp    LDRSB    r7,[r4,#0x44]
        0x00002112:    2f01        ./      CMP      r7,#1
        0x00002114:    db0e        ..      BLT      0x2134 ; prvUnlockQueue + 100
        0x00002116:    f1040510    ....    ADD      r5,r4,#0x10
        0x0000211a:    bf00        ..      NOP      
        0x0000211c:    6828        (h      LDR      r0,[r5,#0]
        0x0000211e:    b148        H.      CBZ      r0,0x2134 ; prvUnlockQueue + 100
        0x00002120:    4628        (F      MOV      r0,r5
        0x00002122:    f001fa4e    ..N.    BL       xTaskRemoveFromEventList ; 0x35c2
        0x00002126:    b108        ..      CBZ      r0,0x212c ; prvUnlockQueue + 92
        0x00002128:    f000fb8c    ....    BL       vTaskMissedYield ; 0x2844
        0x0000212c:    b278        x.      SXTB     r0,r7
        0x0000212e:    3f01        .?      SUBS     r7,#1
        0x00002130:    2801        .(      CMP      r0,#1
        0x00002132:    dcf3        ..      BGT      0x211c ; prvUnlockQueue + 76
        0x00002134:    f8846044    ..D`    STRB     r6,[r4,#0x44]
        0x00002138:    b001        ..      ADD      sp,sp,#4
        0x0000213a:    e8bd40f0    ...@    POP      {r4-r7,lr}
        0x0000213e:    f000ba8f    ....    B.W      vPortExitCritical ; 0x2660
    pxPortInitialiseStack
        0x00002142:    3128        (1      ADDS     r1,r1,#0x28
        0x00002144:    f8401d48    @.H.    STR      r1,[r0,#-0x48]!
        0x00002148:    f6417131    A.1q    MOV      r1,#0x1f31
        0x0000214c:    f2c00100    ....    MOVT     r1,#0
        0x00002150:    f04f7c80    O..|    MOV      r12,#0x1000000
        0x00002154:    f0220201    "...    BIC      r2,r2,#1
        0x00002158:    63c1        .c      STR      r1,[r0,#0x3c]
        0x0000215a:    f06f0102    o...    MVN      r1,#2
        0x0000215e:    6402        .d      STR      r2,[r0,#0x40]
        0x00002160:    f8c0c044    ..D.    STR      r12,[r0,#0x44]
        0x00002164:    e9c01309    ....    STRD     r1,r3,[r0,#0x24]
        0x00002168:    4770        pG      BX       lr
        0x0000216a:    0000        ..      MOVS     r0,r0
    r_ioport_pins_config
        0x0000216c:    b570        p.      PUSH     {r4-r6,lr}
        0x0000216e:    4604        .F      MOV      r4,r0
        0x00002170:    f7feff8c    ....    BL       bsp_vbatt_init ; 0x108c
        0x00002174:    f2405c30    @.0\    MOVW     r12,#0x530
        0x00002178:    f3ef8010    ....    MRS      r0,PRIMASK
        0x0000217c:    2101        .!      MOVS     r1,#1
        0x0000217e:    f3818810    ....    MSR      PRIMASK,r1
        0x00002182:    f2c20c00    ....    MOVT     r12,#0x2000
        0x00002186:    f8dc1000    ....    LDR      r1,[r12,#0]
        0x0000218a:    b939        9.      CBNZ     r1,0x219c ; r_ioport_pins_config + 48
        0x0000218c:    f6405103    @..Q    MOV      r1,#0xd03
        0x00002190:    f2c40108    ....    MOVT     r1,#0x4008
        0x00002194:    2200        ."      MOVS     r2,#0
        0x00002196:    700a        .p      STRB     r2,[r1,#0]
        0x00002198:    2240        @"      MOVS     r2,#0x40
        0x0000219a:    700a        .p      STRB     r2,[r1,#0]
        0x0000219c:    f8dc1000    ....    LDR      r1,[r12,#0]
        0x000021a0:    3101        .1      ADDS     r1,#1
        0x000021a2:    f8cc1000    ....    STR      r1,[r12,#0]
        0x000021a6:    f3808810    ....    MSR      PRIMASK,r0
        0x000021aa:    8820         .      LDRH     r0,[r4,#0]
        0x000021ac:    b318        ..      CBZ      r0,0x21f6 ; r_ioport_pins_config + 138
        0x000021ae:    f6400e00    @...    MOVW     lr,#0x800
        0x000021b2:    2100        .!      MOVS     r1,#0
        0x000021b4:    f2c40e08    ....    MOVT     lr,#0x4008
        0x000021b8:    6860        `h      LDR      r0,[r4,#4]
        0x000021ba:    eb0002c1    ....    ADD      r2,r0,r1,LSL #3
        0x000021be:    f8503031    P.10    LDR      r3,[r0,r1,LSL #3]
        0x000021c2:    6852        Rh      LDR      r2,[r2,#4]
        0x000021c4:    03dd        ..      LSLS     r5,r3,#15
        0x000021c6:    ea4f2012    O..     LSR      r0,r2,#8
        0x000021ca:    b2d2        ..      UXTB     r2,r2
        0x000021cc:    d50b        ..      BPL      0x21e6 ; r_ioport_pins_config + 122
        0x000021ce:    eb0e1580    ....    ADD      r5,lr,r0,LSL #6
        0x000021d2:    f8556022    U."`    LDR      r6,[r5,r2,LSL #2]
        0x000021d6:    f4263680    &..6    BIC      r6,r6,#0x10000
        0x000021da:    f8456022    E."`    STR      r6,[r5,r2,LSL #2]
        0x000021de:    f4233680    #..6    BIC      r6,r3,#0x10000
        0x000021e2:    f8456022    E."`    STR      r6,[r5,r2,LSL #2]
        0x000021e6:    eb0e1080    ....    ADD      r0,lr,r0,LSL #6
        0x000021ea:    3101        .1      ADDS     r1,#1
        0x000021ec:    f8403022    @."0    STR      r3,[r0,r2,LSL #2]
        0x000021f0:    8820         .      LDRH     r0,[r4,#0]
        0x000021f2:    4281        .B      CMP      r1,r0
        0x000021f4:    d3e0        ..      BCC      0x21b8 ; r_ioport_pins_config + 76
        0x000021f6:    2001        .       MOVS     r0,#1
        0x000021f8:    f3ef8110    ....    MRS      r1,PRIMASK
        0x000021fc:    f3808810    ....    MSR      PRIMASK,r0
        0x00002200:    f8dc0000    ....    LDR      r0,[r12,#0]
        0x00002204:    b120         .      CBZ      r0,0x2210 ; r_ioport_pins_config + 164
        0x00002206:    f8dc0000    ....    LDR      r0,[r12,#0]
        0x0000220a:    3801        .8      SUBS     r0,#1
        0x0000220c:    f8cc0000    ....    STR      r0,[r12,#0]
        0x00002210:    f8dc0000    ....    LDR      r0,[r12,#0]
        0x00002214:    b938        8.      CBNZ     r0,0x2226 ; r_ioport_pins_config + 186
        0x00002216:    f6405003    @..P    MOV      r0,#0xd03
        0x0000221a:    f2c40008    ....    MOVT     r0,#0x4008
        0x0000221e:    2200        ."      MOVS     r2,#0
        0x00002220:    7002        .p      STRB     r2,[r0,#0]
        0x00002222:    2280        ."      MOVS     r2,#0x80
        0x00002224:    7002        .p      STRB     r2,[r0,#0]
        0x00002226:    f3818810    ....    MSR      PRIMASK,r1
        0x0000222a:    bd70        p.      POP      {r4-r6,pc}
    r_sci_uart_call_callback
        0x0000222c:    b5b0        ..      PUSH     {r4,r5,r7,lr}
        0x0000222e:    b084        ..      SUB      sp,sp,#0x10
        0x00002230:    4604        .F      MOV      r4,r0
        0x00002232:    6a80        .j      LDR      r0,[r0,#0x28]
        0x00002234:    b140        @.      CBZ      r0,0x2248 ; r_sci_uart_call_callback + 28
        0x00002236:    e9d0ce00    ....    LDRD     r12,lr,[r0,#0]
        0x0000223a:    e9d05302    ...S    LDRD     r5,r3,[r0,#8]
        0x0000223e:    e9cdce00    ....    STRD     r12,lr,[sp,#0]
        0x00002242:    e9cd5302    ...S    STRD     r5,r3,[sp,#8]
        0x00002246:    e000        ..      B        0x224a ; r_sci_uart_call_callback + 30
        0x00002248:    4668        hF      MOV      r0,sp
        0x0000224a:    69e3        .i      LDR      r3,[r4,#0x1c]
        0x0000224c:    f8d4c024    ..$.    LDR      r12,[r4,#0x24]
        0x00002250:    781b        .x      LDRB     r3,[r3,#0]
        0x00002252:    6ae5        .j      LDR      r5,[r4,#0x2c]
        0x00002254:    e9c03200    ...2    STRD     r3,r2,[r0,#0]
        0x00002258:    e9c01502    ....    STRD     r1,r5,[r0,#8]
        0x0000225c:    47e0        .G      BLX      r12
        0x0000225e:    6aa0        .j      LDR      r0,[r4,#0x28]
        0x00002260:    b110        ..      CBZ      r0,0x2268 ; r_sci_uart_call_callback + 60
        0x00002262:    e89d002e    ....    LDM      sp,{r1-r3,r5}
        0x00002266:    c02e        ..      STM      r0!,{r1-r3,r5}
        0x00002268:    b004        ..      ADD      sp,sp,#0x10
        0x0000226a:    bdb0        ..      POP      {r4,r5,r7,pc}
    rm_freertos_port_restore_task_stackless
        0x0000226c:    4807        .H      LDR      r0,[pc,#28] ; [0x228c] = 0x200006d8
        0x0000226e:    6801        .h      LDR      r1,[r0,#0]
        0x00002270:    680a        .h      LDR      r2,[r1,#0]
        0x00002272:    ca02        ..      LDM      r2!,{r1}
        0x00002274:    f381880b    ....    MSR      PSPLIM,r1
        0x00002278:    e8b24ff0    ...O    LDM      r2!,{r4-r11,lr}
        0x0000227c:    f01e0f10    ....    TST      lr,#0x10
        0x00002280:    bf08        ..      IT       EQ
        0x00002282:    ecb28a10    ....    VLDMEQ   r2!,{s16-s31}
    _skip_restore_ns_context
        0x00002286:    f3828809    ....    MSR      PSP,r2
        0x0000228a:    4770        pG      BX       lr
    $d
        0x0000228c:    200006d8    ...     DCD    536872664
    $t
    rm_freertos_port_sleep_preserving_lpm
        0x00002290:    b188        ..      CBZ      r0,0x22b6 ; rm_freertos_port_sleep_preserving_lpm + 38
        0x00002292:    f24e000c    N...    MOV      r0,#0xe00c
        0x00002296:    f2c40001    ....    MOVT     r0,#0x4001
        0x0000229a:    f9b01000    ....    LDRSH    r1,[r0,#0]
        0x0000229e:    f1b13fff    ...?    CMP      r1,#0xffffffff
        0x000022a2:    dd09        ..      BLE      0x22b8 ; rm_freertos_port_sleep_preserving_lpm + 40
        0x000022a4:    f3bf8f4f    ..O.    DSB      
        0x000022a8:    bf30        0.      WFI      
        0x000022aa:    f3bf8f6f    ..o.    ISB      
        0x000022ae:    b662        b.      CPSIE    i
        0x000022b0:    f3bf8f6f    ..o.    ISB      
        0x000022b4:    b672        r.      CPSID    i
        0x000022b6:    4770        pG      BX       lr
        0x000022b8:    b580        ..      PUSH     {r7,lr}
        0x000022ba:    f24e32fe    N..2    MOV      r2,#0xe3fe
        0x000022be:    f2c40201    ....    MOVT     r2,#0x4001
        0x000022c2:    f8b2e000    ....    LDRH     lr,[r2,#0]
        0x000022c6:    f24a5c02    J..\    MOV      r12,#0xa502
        0x000022ca:    f6cf7cff    ...|    MOVT     r12,#0xffff
        0x000022ce:    2300        .#      MOVS     r3,#0
        0x000022d0:    f8a2c000    ....    STRH     r12,[r2,#0]
        0x000022d4:    8003        ..      STRH     r3,[r0,#0]
        0x000022d6:    f44e4325    N.%C    ORR      r3,lr,#0xa500
        0x000022da:    8013        ..      STRH     r3,[r2,#0]
        0x000022dc:    f3bf8f4f    ..O.    DSB      
        0x000022e0:    bf30        0.      WFI      
        0x000022e2:    f3bf8f6f    ..o.    ISB      
        0x000022e6:    b662        b.      CPSIE    i
        0x000022e8:    f3bf8f6f    ..o.    ISB      
        0x000022ec:    b672        r.      CPSID    i
        0x000022ee:    8813        ..      LDRH     r3,[r2,#0]
        0x000022f0:    f8a2c000    ....    STRH     r12,[r2,#0]
        0x000022f4:    8001        ..      STRH     r1,[r0,#0]
        0x000022f6:    f4434025    C.%@    ORR      r0,r3,#0xa500
        0x000022fa:    8010        ..      STRH     r0,[r2,#0]
        0x000022fc:    bd80        ..      POP      {r7,pc}
        0x000022fe:    0000        ..      MOVS     r0,r0
    rtos_startup_common_init
        0x00002300:    b5b0        ..      PUSH     {r4,r5,r7,lr}
        0x00002302:    f2404488    @..D    MOVW     r4,#0x488
        0x00002306:    f2c20400    ....    MOVT     r4,#0x2000
        0x0000230a:    6820         h      LDR      r0,[r4,#0]
        0x0000230c:    f04f31ff    O..1    MOV      r1,#0xffffffff
        0x00002310:    f000fe40    ..@.    BL       xQueueSemaphoreTake ; 0x2f94
        0x00002314:    2801        .(      CMP      r0,#1
        0x00002316:    d003        ..      BEQ      0x2320 ; rtos_startup_common_init + 32
        0x00002318:    6820         h      LDR      r0,[r4,#0]
        0x0000231a:    2100        .!      MOVS     r1,#0
        0x0000231c:    f000f821    ..!.    BL       rtos_startup_err_callback ; 0x2362
        0x00002320:    f2404084    @..@    MOV      r0,#0x484
        0x00002324:    f2c20000    ....    MOVT     r0,#0x2000
        0x00002328:    7801        .x      LDRB     r1,[r0,#0]
        0x0000232a:    b101        ..      CBZ      r1,0x232e ; rtos_startup_common_init + 46
        0x0000232c:    bdb0        ..      POP      {r4,r5,r7,pc}
        0x0000232e:    2101        .!      MOVS     r1,#1
        0x00002330:    7001        .p      STRB     r1,[r0,#0]
        0x00002332:    f7feff1f    ....    BL       g_hal_init ; 0x1174
        0x00002336:    f24045d4    @..E    MOV      r5,#0x4d4
        0x0000233a:    f2c20500    ....    MOVT     r5,#0x2000
        0x0000233e:    bf00        ..      NOP      
        0x00002340:    6828        (h      LDR      r0,[r5,#0]
        0x00002342:    3801        .8      SUBS     r0,#1
        0x00002344:    6028        (`      STR      r0,[r5,#0]
        0x00002346:    d0f1        ..      BEQ      0x232c ; rtos_startup_common_init + 44
        0x00002348:    6820         h      LDR      r0,[r4,#0]
        0x0000234a:    2100        .!      MOVS     r1,#0
        0x0000234c:    2200        ."      MOVS     r2,#0
        0x0000234e:    2300        .#      MOVS     r3,#0
        0x00002350:    f000fc7e    ..~.    BL       xQueueGenericSend ; 0x2c50
        0x00002354:    2801        .(      CMP      r0,#1
        0x00002356:    d0f3        ..      BEQ      0x2340 ; rtos_startup_common_init + 64
        0x00002358:    6820         h      LDR      r0,[r4,#0]
        0x0000235a:    2100        .!      MOVS     r1,#0
        0x0000235c:    f000f801    ....    BL       rtos_startup_err_callback ; 0x2362
        0x00002360:    e7ee        ..      B        0x2340 ; rtos_startup_common_init + 64
    rtos_startup_err_callback
    rtos_startup_err_callback_internal
        0x00002362:    be00        ..      BKPT     #0
        0x00002364:    4770        pG      BX       lr
    sci_uart_eri_isr
        0x00002366:    b5b0        ..      PUSH     {r4,r5,r7,lr}
        0x00002368:    f3ef8003    ....    MRS      r0,XPSR
        0x0000236c:    f36f205f    o._     BFC      r0,#9,#23
        0x00002370:    f1a00510    ....    SUB      r5,r0,#0x10
        0x00002374:    f240506c    @.lP    MOV      r0,#0x56c
        0x00002378:    f2c20000    ....    MOVT     r0,#0x2000
        0x0000237c:    f8500025    P.%.    LDR      r0,[r0,r5,LSL #2]
        0x00002380:    7881        .x      LDRB     r1,[r0,#2]
        0x00002382:    6a03        .j      LDR      r3,[r0,#0x20]
        0x00002384:    f0010103    ....    AND      r1,r1,#3
        0x00002388:    2902        .)      CMP      r1,#2
        0x0000238a:    bf12        ..      ITEE     NE
        0x0000238c:    7959        Yy      LDRBNE   r1,[r3,#5]
        0x0000238e:    8a19        ..      LDRHEQ   r1,[r3,#0x10]
        0x00002390:    f36f215f    o._!    BFCEQ    r1,#9,#23
        0x00002394:    791a        .y      LDRB     r2,[r3,#4]
        0x00002396:    06d4        ..      LSLS     r4,r2,#27
        0x00002398:    f0020238    ..8.    AND      r2,r2,#0x38
        0x0000239c:    d503        ..      BPL      0x23a6 ; sci_uart_eri_isr + 64
        0x0000239e:    7f1c        ..      LDRB     r4,[r3,#0x1c]
        0x000023a0:    07e4        ..      LSLS     r4,r4,#31
        0x000023a2:    bf08        ..      IT       EQ
        0x000023a4:    3240        @2      ADDEQ    r2,r2,#0x40
        0x000023a6:    791c        .y      LDRB     r4,[r3,#4]
        0x000023a8:    f00404c7    ....    AND      r4,r4,#0xc7
        0x000023ac:    711c        .q      STRB     r4,[r3,#4]
        0x000023ae:    6a43        Cj      LDR      r3,[r0,#0x24]
        0x000023b0:    b10b        ..      CBZ      r3,0x23b6 ; sci_uart_eri_isr + 80
        0x000023b2:    f7ffff3b    ..;.    BL       r_sci_uart_call_callback ; 0x222c
        0x000023b6:    f2463000    F..0    MOVW     r0,#0x6300
        0x000023ba:    f2c40000    ....    MOVT     r0,#0x4000
        0x000023be:    f8501025    P.%.    LDR      r1,[r0,r5,LSL #2]
        0x000023c2:    f4213180    !..1    BIC      r1,r1,#0x10000
        0x000023c6:    f8401025    @.%.    STR      r1,[r0,r5,LSL #2]
        0x000023ca:    f8500025    P.%.    LDR      r0,[r0,r5,LSL #2]
        0x000023ce:    bdb0        ..      POP      {r4,r5,r7,pc}
    sci_uart_rxi_isr
        0x000023d0:    b510        ..      PUSH     {r4,lr}
        0x000023d2:    b082        ..      SUB      sp,sp,#8
        0x000023d4:    f3ef8003    ....    MRS      r0,XPSR
        0x000023d8:    f24071fc    @..q    MOV      r1,#0x7fc
        0x000023dc:    ea010080    ....    AND      r0,r1,r0,LSL #2
        0x000023e0:    f24621c0    F..!    MOV      r1,#0x62c0
        0x000023e4:    f2c40100    ....    MOVT     r1,#0x4000
        0x000023e8:    5842        BX      LDR      r2,[r0,r1]
        0x000023ea:    f4223280    "..2    BIC      r2,r2,#0x10000
        0x000023ee:    5042        BP      STR      r2,[r0,r1]
        0x000023f0:    f240526c    @.lR    MOV      r2,#0x56c
        0x000023f4:    f2c20200    ....    MOVT     r2,#0x2000
        0x000023f8:    5841        AX      LDR      r1,[r0,r1]
        0x000023fa:    4410        .D      ADD      r0,r0,r2
        0x000023fc:    f8504c40    P.@L    LDR      r4,[r0,#-0x40]
        0x00002400:    78a0        .x      LDRB     r0,[r4,#2]
        0x00002402:    f0000203    ....    AND      r2,r0,#3
        0x00002406:    6a20         j      LDR      r0,[r4,#0x20]
        0x00002408:    2a02        .*      CMP      r2,#2
        0x0000240a:    bf12        ..      ITEE     NE
        0x0000240c:    7941        Ay      LDRBNE   r1,[r0,#5]
        0x0000240e:    8a01        ..      LDRHEQ   r1,[r0,#0x10]
        0x00002410:    f36f215f    o._!    BFCEQ    r1,#9,#23
        0x00002414:    69a0        .i      LDR      r0,[r4,#0x18]
        0x00002416:    9101        ..      STR      r1,[sp,#4]
        0x00002418:    b198        ..      CBZ      r0,0x2442 ; sci_uart_rxi_isr + 114
        0x0000241a:    6960        `i      LDR      r0,[r4,#0x14]
        0x0000241c:    a901        ..      ADD      r1,sp,#4
        0x0000241e:    f7fdfe33    ..3.    BL       __aeabi_memcpy ; 0x88
        0x00002422:    78a0        .x      LDRB     r0,[r4,#2]
        0x00002424:    6961        ai      LDR      r1,[r4,#0x14]
        0x00002426:    69a2        .i      LDR      r2,[r4,#0x18]
        0x00002428:    f0000003    ....    AND      r0,r0,#3
        0x0000242c:    4401        .D      ADD      r1,r1,r0
        0x0000242e:    1a10        ..      SUBS     r0,r2,r0
        0x00002430:    6161        aa      STR      r1,[r4,#0x14]
        0x00002432:    61a0        .a      STR      r0,[r4,#0x18]
        0x00002434:    d10e        ..      BNE      0x2454 ; sci_uart_rxi_isr + 132
        0x00002436:    6a60        `j      LDR      r0,[r4,#0x24]
        0x00002438:    b160        `.      CBZ      r0,0x2454 ; sci_uart_rxi_isr + 132
        0x0000243a:    4620         F      MOV      r0,r4
        0x0000243c:    2100        .!      MOVS     r1,#0
        0x0000243e:    2201        ."      MOVS     r2,#1
        0x00002440:    e003        ..      B        0x244a ; sci_uart_rxi_isr + 122
        0x00002442:    6a60        `j      LDR      r0,[r4,#0x24]
        0x00002444:    b130        0.      CBZ      r0,0x2454 ; sci_uart_rxi_isr + 132
        0x00002446:    4620         F      MOV      r0,r4
        0x00002448:    2204        ."      MOVS     r2,#4
        0x0000244a:    b002        ..      ADD      sp,sp,#8
        0x0000244c:    e8bd4010    ...@    POP      {r4,lr}
        0x00002450:    f7ffbeec    ....    B.W      r_sci_uart_call_callback ; 0x222c
        0x00002454:    b002        ..      ADD      sp,sp,#8
        0x00002456:    bd10        ..      POP      {r4,pc}
    sci_uart_tei_isr
        0x00002458:    b510        ..      PUSH     {r4,lr}
        0x0000245a:    f3ef8003    ....    MRS      r0,XPSR
        0x0000245e:    f36f205f    o._     BFC      r0,#9,#23
        0x00002462:    f1a00410    ....    SUB      r4,r0,#0x10
        0x00002466:    f240506c    @.lP    MOV      r0,#0x56c
        0x0000246a:    f2c20000    ....    MOVT     r0,#0x2000
        0x0000246e:    f8500024    P.$.    LDR      r0,[r0,r4,LSL #2]
        0x00002472:    6a01        .j      LDR      r1,[r0,#0x20]
        0x00002474:    788a        .x      LDRB     r2,[r1,#2]
        0x00002476:    f002027b    ..{.    AND      r2,r2,#0x7b
        0x0000247a:    708a        .p      STRB     r2,[r1,#2]
        0x0000247c:    6a41        Aj      LDR      r1,[r0,#0x24]
        0x0000247e:    b119        ..      CBZ      r1,0x2488 ; sci_uart_tei_isr + 48
        0x00002480:    2100        .!      MOVS     r1,#0
        0x00002482:    2202        ."      MOVS     r2,#2
        0x00002484:    f7fffed2    ....    BL       r_sci_uart_call_callback ; 0x222c
        0x00002488:    f2463000    F..0    MOVW     r0,#0x6300
        0x0000248c:    f2c40000    ....    MOVT     r0,#0x4000
        0x00002490:    f8501024    P.$.    LDR      r1,[r0,r4,LSL #2]
        0x00002494:    f4213180    !..1    BIC      r1,r1,#0x10000
        0x00002498:    f8401024    @.$.    STR      r1,[r0,r4,LSL #2]
        0x0000249c:    f8500024    P.$.    LDR      r0,[r0,r4,LSL #2]
        0x000024a0:    bd10        ..      POP      {r4,pc}
    sci_uart_txi_isr
        0x000024a2:    f3ef8003    ....    MRS      r0,XPSR
        0x000024a6:    f24071fc    @..q    MOV      r1,#0x7fc
        0x000024aa:    ea010080    ....    AND      r0,r1,r0,LSL #2
        0x000024ae:    f24621c0    F..!    MOV      r1,#0x62c0
        0x000024b2:    f2c40100    ....    MOVT     r1,#0x4000
        0x000024b6:    5842        BX      LDR      r2,[r0,r1]
        0x000024b8:    f4223280    "..2    BIC      r2,r2,#0x10000
        0x000024bc:    5042        BP      STR      r2,[r0,r1]
        0x000024be:    f240526c    @.lR    MOV      r2,#0x56c
        0x000024c2:    f2c20200    ....    MOVT     r2,#0x2000
        0x000024c6:    5841        AX      LDR      r1,[r0,r1]
        0x000024c8:    4410        .D      ADD      r0,r0,r2
        0x000024ca:    f8500c40    P.@.    LDR      r0,[r0,#-0x40]
        0x000024ce:    69c1        .i      LDR      r1,[r0,#0x1c]
        0x000024d0:    6b4a        Jk      LDR      r2,[r1,#0x34]
        0x000024d2:    6901        .i      LDR      r1,[r0,#0x10]
        0x000024d4:    b9c2        ..      CBNZ     r2,0x2508 ; sci_uart_txi_isr + 102
        0x000024d6:    b1c1        ..      CBZ      r1,0x250a ; sci_uart_txi_isr + 104
        0x000024d8:    7881        .x      LDRB     r1,[r0,#2]
        0x000024da:    f0010203    ....    AND      r2,r1,#3
        0x000024de:    68c1        .h      LDR      r1,[r0,#0xc]
        0x000024e0:    2a02        .*      CMP      r2,#2
        0x000024e2:    d105        ..      BNE      0x24f0 ; sci_uart_txi_isr + 78
        0x000024e4:    8809        ..      LDRH     r1,[r1,#0]
        0x000024e6:    6a02        .j      LDR      r2,[r0,#0x20]
        0x000024e8:    f441417e    A.~A    ORR      r1,r1,#0xfe00
        0x000024ec:    81d1        ..      STRH     r1,[r2,#0xe]
        0x000024ee:    e002        ..      B        0x24f6 ; sci_uart_txi_isr + 84
        0x000024f0:    7809        .x      LDRB     r1,[r1,#0]
        0x000024f2:    6a02        .j      LDR      r2,[r0,#0x20]
        0x000024f4:    70d1        .p      STRB     r1,[r2,#3]
        0x000024f6:    7881        .x      LDRB     r1,[r0,#2]
        0x000024f8:    6902        .i      LDR      r2,[r0,#0x10]
        0x000024fa:    f0010303    ....    AND      r3,r1,#3
        0x000024fe:    1ad1        ..      SUBS     r1,r2,r3
        0x00002500:    68c2        .h      LDR      r2,[r0,#0xc]
        0x00002502:    6101        .a      STR      r1,[r0,#0x10]
        0x00002504:    441a        .D      ADD      r2,r2,r3
        0x00002506:    60c2        .`      STR      r2,[r0,#0xc]
        0x00002508:    b971        q.      CBNZ     r1,0x2528 ; sci_uart_txi_isr + 134
        0x0000250a:    6a01        .j      LDR      r1,[r0,#0x20]
        0x0000250c:    788a        .x      LDRB     r2,[r1,#2]
        0x0000250e:    f002027b    ..{.    AND      r2,r2,#0x7b
        0x00002512:    3204        .2      ADDS     r2,#4
        0x00002514:    708a        .p      STRB     r2,[r1,#2]
        0x00002516:    6a41        Aj      LDR      r1,[r0,#0x24]
        0x00002518:    2900        .)      CMP      r1,#0
        0x0000251a:    f04f0100    O...    MOV      r1,#0
        0x0000251e:    60c1        .`      STR      r1,[r0,#0xc]
        0x00002520:    bf1c        ..      ITT      NE
        0x00002522:    2280        ."      MOVNE    r2,#0x80
        0x00002524:    f7ffbe82    ....    BNE.W    r_sci_uart_call_callback ; 0x222c
        0x00002528:    4770        pG      BX       lr
    uart7_callback
        0x0000252a:    6840        @h      LDR      r0,[r0,#4]
        0x0000252c:    2802        .(      CMP      r0,#2
        0x0000252e:    d007        ..      BEQ      0x2540 ; uart7_callback + 22
        0x00002530:    2801        .(      CMP      r0,#1
        0x00002532:    bf18        ..      IT       NE
        0x00002534:    4770        pG      BXNE     lr
        0x00002536:    f2405064    @.dP    MOV      r0,#0x564
        0x0000253a:    f2c20000    ....    MOVT     r0,#0x2000
        0x0000253e:    e003        ..      B        0x2548 ; uart7_callback + 30
        0x00002540:    f2405068    @.hP    MOVW     r0,#0x568
        0x00002544:    f2c20000    ....    MOVT     r0,#0x2000
        0x00002548:    2101        .!      MOVS     r1,#1
        0x0000254a:    6001        .`      STR      r1,[r0,#0]
        0x0000254c:    4770        pG      BX       lr
    uxListRemove
        0x0000254e:    e9d03201    ...2    LDRD     r3,r2,[r0,#4]
        0x00002552:    6901        .i      LDR      r1,[r0,#0x10]
        0x00002554:    f8d1c004    ....    LDR      r12,[r1,#4]
        0x00002558:    609a        .`      STR      r2,[r3,#8]
        0x0000255a:    4584        .E      CMP      r12,r0
        0x0000255c:    6053        S`      STR      r3,[r2,#4]
        0x0000255e:    bf08        ..      IT       EQ
        0x00002560:    604a        J`      STREQ    r2,[r1,#4]
        0x00002562:    680b        .h      LDR      r3,[r1,#0]
        0x00002564:    2200        ."      MOVS     r2,#0
        0x00002566:    6102        .a      STR      r2,[r0,#0x10]
        0x00002568:    1e58        X.      SUBS     r0,r3,#1
        0x0000256a:    6008        .`      STR      r0,[r1,#0]
        0x0000256c:    4770        pG      BX       lr
    vApplicationGetIdleTaskMemory
        0x0000256e:    f6401368    @.h.    MOV      r3,#0x968
        0x00002572:    f2c20300    ....    MOVT     r3,#0x2000
        0x00002576:    6003        .`      STR      r3,[r0,#0]
        0x00002578:    f2407068    @.hp    MOVW     r0,#0x768
        0x0000257c:    f2c20000    ....    MOVT     r0,#0x2000
        0x00002580:    6008        .`      STR      r0,[r1,#0]
        0x00002582:    2080        .       MOVS     r0,#0x80
        0x00002584:    6010        .`      STR      r0,[r2,#0]
        0x00002586:    4770        pG      BX       lr
    vApplicationGetTimerTaskMemory
        0x00002588:    f64033c8    @..3    MOV      r3,#0xbc8
        0x0000258c:    f2c20300    ....    MOVT     r3,#0x2000
        0x00002590:    6003        .`      STR      r3,[r0,#0]
        0x00002592:    f64010c8    @...    MOV      r0,#0x9c8
        0x00002596:    f2c20000    ....    MOVT     r0,#0x2000
        0x0000259a:    6008        .`      STR      r0,[r1,#0]
        0x0000259c:    2080        .       MOVS     r0,#0x80
        0x0000259e:    6010        .`      STR      r0,[r2,#0]
        0x000025a0:    4770        pG      BX       lr
    vApplicationIdleHook
        0x000025a2:    b580        ..      PUSH     {r7,lr}
        0x000025a4:    b672        r.      CPSID    i
        0x000025a6:    f000fa03    ....    BL       vTaskSuspendAll ; 0x29b0
        0x000025aa:    2001        .       MOVS     r0,#1
        0x000025ac:    f7fffe70    ..p.    BL       rm_freertos_port_sleep_preserving_lpm ; 0x2290
        0x000025b0:    b662        b.      CPSIE    i
        0x000025b2:    e8bd4080    ...@    POP      {r7,lr}
        0x000025b6:    f001b87d    ..}.    B.W      xTaskResumeAll ; 0x36b4
    vListInitialise
        0x000025ba:    f04f31ff    O..1    MOV      r1,#0xffffffff
        0x000025be:    4602        .F      MOV      r2,r0
        0x000025c0:    f8421f08    B...    STR      r1,[r2,#8]!
        0x000025c4:    2100        .!      MOVS     r1,#0
        0x000025c6:    e9c02203    ..."    STRD     r2,r2,[r0,#0xc]
        0x000025ca:    e9c01200    ....    STRD     r1,r2,[r0,#0]
        0x000025ce:    4770        pG      BX       lr
    vListInitialiseItem
        0x000025d0:    2100        .!      MOVS     r1,#0
        0x000025d2:    6101        .a      STR      r1,[r0,#0x10]
        0x000025d4:    4770        pG      BX       lr
        0x000025d6:    0000        ..      MOVS     r0,r0
    vListInsert
        0x000025d8:    b580        ..      PUSH     {r7,lr}
        0x000025da:    f8d1c000    ....    LDR      r12,[r1,#0]
        0x000025de:    f11c0201    ....    ADDS     r2,r12,#1
        0x000025e2:    d007        ..      BEQ      0x25f4 ; vListInsert + 28
        0x000025e4:    f1000208    ....    ADD      r2,r0,#8
        0x000025e8:    4696        .F      MOV      lr,r2
        0x000025ea:    6852        Rh      LDR      r2,[r2,#4]
        0x000025ec:    6813        .h      LDR      r3,[r2,#0]
        0x000025ee:    4563        cE      CMP      r3,r12
        0x000025f0:    d9fa        ..      BLS      0x25e8 ; vListInsert + 16
        0x000025f2:    e003        ..      B        0x25fc ; vListInsert + 36
        0x000025f4:    f8d0e010    ....    LDR      lr,[r0,#0x10]
        0x000025f8:    f8de2004    ...     LDR      r2,[lr,#4]
        0x000025fc:    604a        J`      STR      r2,[r1,#4]
        0x000025fe:    6091        .`      STR      r1,[r2,#8]
        0x00002600:    6802        .h      LDR      r2,[r0,#0]
        0x00002602:    f8c1e008    ....    STR      lr,[r1,#8]
        0x00002606:    f8ce1004    ....    STR      r1,[lr,#4]
        0x0000260a:    6108        .a      STR      r0,[r1,#0x10]
        0x0000260c:    1c51        Q.      ADDS     r1,r2,#1
        0x0000260e:    6001        .`      STR      r1,[r0,#0]
        0x00002610:    bd80        ..      POP      {r7,pc}
    vPortEnterCritical
        0x00002612:    2110        .!      MOVS     r1,#0x10
        0x00002614:    f3ef8011    ....    MRS      r0,BASEPRI
        0x00002618:    f3818811    ....    MSR      BASEPRI,r1
        0x0000261c:    f2407150    @.Pq    MOVW     r1,#0x750
        0x00002620:    f2c20100    ....    MOVT     r1,#0x2000
        0x00002624:    680a        .h      LDR      r2,[r1,#0]
        0x00002626:    1c53        S.      ADDS     r3,r2,#1
        0x00002628:    600b        .`      STR      r3,[r1,#0]
        0x0000262a:    b95a        Z.      CBNZ     r2,0x2644 ; vPortEnterCritical + 50
        0x0000262c:    f2405120    @. Q    MOVW     r1,#0x520
        0x00002630:    f2c20100    ....    MOVT     r1,#0x2000
        0x00002634:    6008        .`      STR      r0,[r1,#0]
        0x00002636:    f64e5004    N..P    MOV      r0,#0xed04
        0x0000263a:    f2ce0000    ....    MOVT     r0,#0xe000
        0x0000263e:    6800        .h      LDR      r0,[r0,#0]
        0x00002640:    05c0        ..      LSLS     r0,r0,#23
        0x00002642:    d100        ..      BNE      0x2646 ; vPortEnterCritical + 52
        0x00002644:    4770        pG      BX       lr
        0x00002646:    f2447066    D.fp    MOV      r0,#0x4766
        0x0000264a:    f24471ac    D..q    MOV      r1,#0x47ac
        0x0000264e:    f2c00000    ....    MOVT     r0,#0
        0x00002652:    f2c00100    ....    MOVT     r1,#0
        0x00002656:    f24042a4    @..B    MOV      r2,#0x4a4
        0x0000265a:    f7fefc29    ..).    BL       __aeabi_assert ; 0xeb0
        0x0000265e:    0000        ..      MOVS     r0,r0
    vPortExitCritical
        0x00002660:    f2407050    @.Pp    MOVW     r0,#0x750
        0x00002664:    f2c20000    ....    MOVT     r0,#0x2000
        0x00002668:    6801        .h      LDR      r1,[r0,#0]
        0x0000266a:    b159        Y.      CBZ      r1,0x2684 ; vPortExitCritical + 36
        0x0000266c:    3901        .9      SUBS     r1,#1
        0x0000266e:    6001        .`      STR      r1,[r0,#0]
        0x00002670:    bf18        ..      IT       NE
        0x00002672:    4770        pG      BXNE     lr
        0x00002674:    f2405020    @. P    MOVW     r0,#0x520
        0x00002678:    f2c20000    ....    MOVT     r0,#0x2000
        0x0000267c:    6800        .h      LDR      r0,[r0,#0]
        0x0000267e:    f3808811    ....    MSR      BASEPRI,r0
        0x00002682:    4770        pG      BX       lr
        0x00002684:    f24471ac    D..q    MOV      r1,#0x47ac
        0x00002688:    a003        ..      ADR      r0,{pc}+0x10 ; 0x2698
        0x0000268a:    f2c00100    ....    MOVT     r1,#0
        0x0000268e:    f24042ad    @..B    MOV      r2,#0x4ad
        0x00002692:    f7fefc0d    ....    BL       __aeabi_assert ; 0xeb0
        0x00002696:    bf00        ..      NOP      
    $d
        0x00002698:    72437875    uxCr    DCD    1917024373
        0x0000269c:    63697469    itic    DCD    1667855465
        0x000026a0:    654e6c61    alNe    DCD    1699638369
        0x000026a4:    6e697473    stin    DCD    1852404851
        0x000026a8:    00000067    g...    DCD    103
    $t
    __tagsym$$used.0
    vPortSVCHandler_C
        0x000026ac:    6980        .i      LDR      r0,[r0,#0x18]
        0x000026ae:    f8100c02    ....    LDRB     r0,[r0,#-2]
        0x000026b2:    2802        .(      CMP      r0,#2
        0x000026b4:    bf08        ..      IT       EQ
        0x000026b6:    f7ffbdd9    ....    BEQ.W    rm_freertos_port_restore_task_stackless ; 0x226c
        0x000026ba:    2804        .(      CMP      r0,#4
        0x000026bc:    bf38        8.      IT       CC
        0x000026be:    4770        pG      BXCC     lr
        0x000026c0:    f24471ac    D..q    MOV      r1,#0x47ac
        0x000026c4:    a003        ..      ADR      r0,{pc}+0x10 ; 0x26d4
        0x000026c6:    f2c00100    ....    MOVT     r1,#0
        0x000026ca:    f44f727e    O.~r    MOV      r2,#0x3f8
        0x000026ce:    f7fefbef    ....    BL       __aeabi_assert ; 0xeb0
        0x000026d2:    bf00        ..      NOP      
    $d
        0x000026d4:    56536375    ucSV    DCD    1448305525
        0x000026d8:    6d754e43    CNum    DCD    1836404291
        0x000026dc:    20726562    ber     DCD    544367970
        0x000026e0:    33203d3c    <= 3    DCD    857750844
        0x000026e4:    00000000    ....    DCD    0
    $t
    vPortSetupTimerInterrupt
        0x000026e8:    f240403c    @.<@    MOV      r0,#0x43c
        0x000026ec:    f2c20000    ....    MOVT     r0,#0x2000
        0x000026f0:    6800        .h      LDR      r0,[r0,#0]
        0x000026f2:    f64451d3    D..Q    MOV      r1,#0x4dd3
        0x000026f6:    f2c10162    ..b.    MOVT     r1,#0x1062
        0x000026fa:    fba00101    ....    UMULL    r0,r1,r0,r1
        0x000026fe:    f04f30ff    O..0    MOV      r0,#0xffffffff
        0x00002702:    eb001191    ....    ADD      r1,r0,r1,LSR #6
        0x00002706:    2000        .       MOVS     r0,#0
        0x00002708:    ebb06f11    ...o    CMP      r0,r1,LSR #24
        0x0000270c:    bf18        ..      IT       NE
        0x0000270e:    4770        pG      BXNE     lr
        0x00002710:    f24e0210    N...    MOV      r2,#0xe010
        0x00002714:    f2ce0200    ....    MOVT     r2,#0xe000
        0x00002718:    6051        Q`      STR      r1,[r2,#4]
        0x0000271a:    f64e5123    N.#Q    MOV      r1,#0xed23
        0x0000271e:    f2ce0100    ....    MOVT     r1,#0xe000
        0x00002722:    23f0        .#      MOVS     r3,#0xf0
        0x00002724:    700b        .p      STRB     r3,[r1,#0]
        0x00002726:    6090        .`      STR      r0,[r2,#8]
        0x00002728:    2007        .       MOVS     r0,#7
        0x0000272a:    6010        .`      STR      r0,[r2,#0]
        0x0000272c:    4770        pG      BX       lr
        0x0000272e:    0000        ..      MOVS     r0,r0
    vQueueAddToRegistry
        0x00002730:    b5b0        ..      PUSH     {r4,r5,r7,lr}
        0x00002732:    b300        ..      CBZ      r0,0x2776 ; vQueueAddToRegistry + 70
        0x00002734:    b1d1        ..      CBZ      r1,0x276c ; vQueueAddToRegistry + 60
        0x00002736:    f6404e9c    @..N    MOV      lr,#0xc9c
        0x0000273a:    f04f0c00    O...    MOV      r12,#0
        0x0000273e:    2300        .#      MOVS     r3,#0
        0x00002740:    f2c20e00    ....    MOVT     lr,#0x2000
        0x00002744:    2200        ."      MOVS     r2,#0
        0x00002746:    bf00        ..      NOP      
        0x00002748:    eb0e0403    ....    ADD      r4,lr,r3
        0x0000274c:    6865        eh      LDR      r5,[r4,#4]
        0x0000274e:    42a8        .B      CMP      r0,r5
        0x00002750:    d00d        ..      BEQ      0x276e ; vQueueAddToRegistry + 62
        0x00002752:    b922        ".      CBNZ     r2,0x275e ; vQueueAddToRegistry + 46
        0x00002754:    6822        "h      LDR      r2,[r4,#0]
        0x00002756:    2a00        .*      CMP      r2,#0
        0x00002758:    bf18        ..      IT       NE
        0x0000275a:    4664        dF      MOVNE    r4,r12
        0x0000275c:    4622        "F      MOV      r2,r4
        0x0000275e:    3308        .3      ADDS     r3,r3,#8
        0x00002760:    2b50        P+      CMP      r3,#0x50
        0x00002762:    d1f1        ..      BNE      0x2748 ; vQueueAddToRegistry + 24
        0x00002764:    2a00        .*      CMP      r2,#0
        0x00002766:    bf18        ..      IT       NE
        0x00002768:    e9c21000    ....    STRDNE   r1,r0,[r2,#0]
        0x0000276c:    bdb0        ..      POP      {r4,r5,r7,pc}
        0x0000276e:    4622        "F      MOV      r2,r4
        0x00002770:    e9c21000    ....    STRD     r1,r0,[r2,#0]
        0x00002774:    bdb0        ..      POP      {r4,r5,r7,pc}
        0x00002776:    f24440f6    D..@    MOV      r0,#0x44f6
        0x0000277a:    f244419d    D..A    MOV      r1,#0x449d
        0x0000277e:    f2c00000    ....    MOVT     r0,#0
        0x00002782:    f2c00100    ....    MOVT     r1,#0
        0x00002786:    f64032c9    @..2    MOV      r2,#0xbc9
        0x0000278a:    f7fefb91    ....    BL       __aeabi_assert ; 0xeb0
    vQueueWaitForMessageRestricted
        0x0000278e:    b570        p.      PUSH     {r4-r6,lr}
        0x00002790:    4615        .F      MOV      r5,r2
        0x00002792:    460e        .F      MOV      r6,r1
        0x00002794:    4604        .F      MOV      r4,r0
        0x00002796:    f7ffff3c    ..<.    BL       vPortEnterCritical ; 0x2612
        0x0000279a:    f8940044    ..D.    LDRB     r0,[r4,#0x44]
        0x0000279e:    28ff        .(      CMP      r0,#0xff
        0x000027a0:    bf04        ..      ITT      EQ
        0x000027a2:    2000        .       MOVEQ    r0,#0
        0x000027a4:    f8840044    ..D.    STRBEQ   r0,[r4,#0x44]
        0x000027a8:    f8940045    ..E.    LDRB     r0,[r4,#0x45]
        0x000027ac:    28ff        .(      CMP      r0,#0xff
        0x000027ae:    bf04        ..      ITT      EQ
        0x000027b0:    2000        .       MOVEQ    r0,#0
        0x000027b2:    f8840045    ..E.    STRBEQ   r0,[r4,#0x45]
        0x000027b6:    f7ffff53    ..S.    BL       vPortExitCritical ; 0x2660
        0x000027ba:    6ba0        .k      LDR      r0,[r4,#0x38]
        0x000027bc:    b928        (.      CBNZ     r0,0x27ca ; vQueueWaitForMessageRestricted + 60
        0x000027be:    f1040024    ..$.    ADD      r0,r4,#0x24
        0x000027c2:    4631        1F      MOV      r1,r6
        0x000027c4:    462a        *F      MOV      r2,r5
        0x000027c6:    f000f861    ..a.    BL       vTaskPlaceOnEventListRestricted ; 0x288c
        0x000027ca:    4620         F      MOV      r0,r4
        0x000027cc:    e8bd4070    ..p@    POP      {r4-r6,lr}
        0x000027d0:    f7ffbc7e    ..~.    B.W      prvUnlockQueue ; 0x20d0
    vTaskDelay
        0x000027d4:    b580        ..      PUSH     {r7,lr}
        0x000027d6:    b180        ..      CBZ      r0,0x27fa ; vTaskDelay + 38
        0x000027d8:    f240715c    @.\q    MOV      r1,#0x75c
        0x000027dc:    f2c20100    ....    MOVT     r1,#0x2000
        0x000027e0:    680a        .h      LDR      r2,[r1,#0]
        0x000027e2:    3201        .2      ADDS     r2,#1
        0x000027e4:    600a        .`      STR      r2,[r1,#0]
        0x000027e6:    6809        .h      LDR      r1,[r1,#0]
        0x000027e8:    2901        .)      CMP      r1,#1
        0x000027ea:    d112        ..      BNE      0x2812 ; vTaskDelay + 62
        0x000027ec:    2100        .!      MOVS     r1,#0
        0x000027ee:    f7fffa1e    ....    BL       prvAddCurrentTaskToDelayedList ; 0x1c2e
        0x000027f2:    f000ff5f    .._.    BL       xTaskResumeAll ; 0x36b4
        0x000027f6:    b100        ..      CBZ      r0,0x27fa ; vTaskDelay + 38
        0x000027f8:    bd80        ..      POP      {r7,pc}
        0x000027fa:    f64e5004    N..P    MOV      r0,#0xed04
        0x000027fe:    f2ce0000    ....    MOVT     r0,#0xe000
        0x00002802:    f04f5180    O..Q    MOV      r1,#0x10000000
        0x00002806:    6001        .`      STR      r1,[r0,#0]
        0x00002808:    f3bf8f4f    ..O.    DSB      
        0x0000280c:    f3bf8f6f    ..o.    ISB      
        0x00002810:    bd80        ..      POP      {r7,pc}
        0x00002812:    f2446061    D.a`    MOV      r0,#0x4661
        0x00002816:    f244617c    D.|a    MOV      r1,#0x467c
        0x0000281a:    f2c00000    ....    MOVT     r0,#0
        0x0000281e:    f2c00100    ....    MOVT     r1,#0
        0x00002822:    f640128e    @...    MOV      r2,#0x98e
        0x00002826:    f7fefb43    ..C.    BL       __aeabi_assert ; 0xeb0
    vTaskInternalSetTimeOutState
        0x0000282a:    f6404180    @..A    MOVW     r1,#0xc80
        0x0000282e:    f2c20100    ....    MOVT     r1,#0x2000
        0x00002832:    6809        .h      LDR      r1,[r1,#0]
        0x00002834:    6001        .`      STR      r1,[r0,#0]
        0x00002836:    f6405118    @..Q    MOV      r1,#0xd18
        0x0000283a:    f2c20100    ....    MOVT     r1,#0x2000
        0x0000283e:    6809        .h      LDR      r1,[r1,#0]
        0x00002840:    6041        A`      STR      r1,[r0,#4]
        0x00002842:    4770        pG      BX       lr
    vTaskMissedYield
        0x00002844:    f6405024    @.$P    MOV      r0,#0xd24
        0x00002848:    f2c20000    ....    MOVT     r0,#0x2000
        0x0000284c:    2101        .!      MOVS     r1,#1
        0x0000284e:    6001        .`      STR      r1,[r0,#0]
        0x00002850:    4770        pG      BX       lr
    vTaskPlaceOnEventList
        0x00002852:    b510        ..      PUSH     {r4,lr}
        0x00002854:    b170        p.      CBZ      r0,0x2874 ; vTaskPlaceOnEventList + 34
        0x00002856:    460c        .F      MOV      r4,r1
        0x00002858:    f24061d8    @..a    MOVW     r1,#0x6d8
        0x0000285c:    f2c20100    ....    MOVT     r1,#0x2000
        0x00002860:    6809        .h      LDR      r1,[r1,#0]
        0x00002862:    3118        .1      ADDS     r1,r1,#0x18
        0x00002864:    f7fffeb8    ....    BL       vListInsert ; 0x25d8
        0x00002868:    4620         F      MOV      r0,r4
        0x0000286a:    2101        .!      MOVS     r1,#1
        0x0000286c:    e8bd4010    ...@    POP      {r4,lr}
        0x00002870:    f7ffb9dd    ....    B        prvAddCurrentTaskToDelayedList ; 0x1c2e
        0x00002874:    f24460e2    D..`    MOV      r0,#0x46e2
        0x00002878:    f244617c    D.|a    MOV      r1,#0x467c
        0x0000287c:    f2c00000    ....    MOVT     r0,#0
        0x00002880:    f2c00100    ....    MOVT     r1,#0
        0x00002884:    f44f52a4    O..R    MOV      r2,#0x1480
        0x00002888:    f7fefb12    ....    BL       __aeabi_assert ; 0xeb0
    vTaskPlaceOnEventListRestricted
        0x0000288c:    b5b0        ..      PUSH     {r4,r5,r7,lr}
        0x0000288e:    b338        8.      CBZ      r0,0x28e0 ; vTaskPlaceOnEventListRestricted + 84
        0x00002890:    4603        .F      MOV      r3,r0
        0x00002892:    e9d0c000    ....    LDRD     r12,r0,[r0,#0]
        0x00002896:    f2406ed8    @..n    MOVW     lr,#0x6d8
        0x0000289a:    f2c20e00    ....    MOVT     lr,#0x2000
        0x0000289e:    f8de4000    ...@    LDR      r4,[lr,#0]
        0x000028a2:    2a00        .*      CMP      r2,#0
        0x000028a4:    61e0        .a      STR      r0,[r4,#0x1c]
        0x000028a6:    6884        .h      LDR      r4,[r0,#8]
        0x000028a8:    f8de5000    ...P    LDR      r5,[lr,#0]
        0x000028ac:    622c        ,b      STR      r4,[r5,#0x20]
        0x000028ae:    f8de5000    ...P    LDR      r5,[lr,#0]
        0x000028b2:    f1050518    ....    ADD      r5,r5,#0x18
        0x000028b6:    6065        e`      STR      r5,[r4,#4]
        0x000028b8:    f8de4000    ...@    LDR      r4,[lr,#0]
        0x000028bc:    f10c0501    ....    ADD      r5,r12,#1
        0x000028c0:    f1040418    ....    ADD      r4,r4,#0x18
        0x000028c4:    6084        .`      STR      r4,[r0,#8]
        0x000028c6:    f8de0000    ....    LDR      r0,[lr,#0]
        0x000028ca:    6283        .b      STR      r3,[r0,#0x28]
        0x000028cc:    bf18        ..      IT       NE
        0x000028ce:    f04f31ff    O..1    MOVNE    r1,#0xffffffff
        0x000028d2:    4608        .F      MOV      r0,r1
        0x000028d4:    4611        .F      MOV      r1,r2
        0x000028d6:    601d        .`      STR      r5,[r3,#0]
        0x000028d8:    e8bd40b0    ...@    POP      {r4,r5,r7,lr}
        0x000028dc:    f7ffb9a7    ....    B        prvAddCurrentTaskToDelayedList ; 0x1c2e
        0x000028e0:    f24460e2    D..`    MOV      r0,#0x46e2
        0x000028e4:    f244617c    D.|a    MOV      r1,#0x467c
        0x000028e8:    f2c00000    ....    MOVT     r0,#0
        0x000028ec:    f2c00100    ....    MOVT     r1,#0
        0x000028f0:    f24142be    A..B    MOV      r2,#0x14be
        0x000028f4:    f7fefadc    ....    BL       __aeabi_assert ; 0xeb0
    vTaskStartScheduler
        0x000028f8:    b5b0        ..      PUSH     {r4,r5,r7,lr}
        0x000028fa:    b08a        ..      SUB      sp,sp,#0x28
        0x000028fc:    f2444049    D.I@    MOV      r0,#0x4449
        0x00002900:    f2c4504c    ..LP    MOVT     r0,#0x454c
        0x00002904:    2400        .$      MOVS     r4,#0
        0x00002906:    9006        ..      STR      r0,[sp,#0x18]
        0x00002908:    a805        ..      ADD      r0,sp,#0x14
        0x0000290a:    a904        ..      ADD      r1,sp,#0x10
        0x0000290c:    aa03        ..      ADD      r2,sp,#0xc
        0x0000290e:    f88d401c    ...@    STRB     r4,[sp,#0x1c]
        0x00002912:    e9cd4404    ...D    STRD     r4,r4,[sp,#0x10]
        0x00002916:    f7fffe2a    ..*.    BL       vApplicationGetIdleTaskMemory ; 0x256e
        0x0000291a:    e9dd2003    ...     LDRD     r2,r0,[sp,#0xc]
        0x0000291e:    9d05        ..      LDR      r5,[sp,#0x14]
        0x00002920:    a906        ..      ADD      r1,sp,#0x18
        0x00002922:    2300        .#      MOVS     r3,#0
        0x00002924:    e9cd4000    ...@    STRD     r4,r0,[sp,#0]
        0x00002928:    f64150f9    A..P    MOV      r0,#0x1df9
        0x0000292c:    f2c00000    ....    MOVT     r0,#0
        0x00002930:    9502        ..      STR      r5,[sp,#8]
        0x00002932:    f000fc37    ..7.    BL       xTaskCreateStatic ; 0x31a4
        0x00002936:    f6404078    @.x@    MOV      r0,#0xc78
        0x0000293a:    f2c20000    ....    MOVT     r0,#0x2000
        0x0000293e:    6005        .`      STR      r5,[r0,#0]
        0x00002940:    b32d        -.      CBZ      r5,0x298e ; vTaskStartScheduler + 150
        0x00002942:    f000ff83    ....    BL       xTimerCreateTimerTask ; 0x384c
        0x00002946:    2801        .(      CMP      r0,#1
        0x00002948:    d00a        ..      BEQ      0x2960 ; vTaskStartScheduler + 104
        0x0000294a:    3001        .0      ADDS     r0,#1
        0x0000294c:    d11f        ..      BNE      0x298e ; vTaskStartScheduler + 150
        0x0000294e:    f244617c    D.|a    MOV      r1,#0x467c
        0x00002952:    a012        ..      ADR      r0,{pc}+0x4a ; 0x299c
        0x00002954:    f2c00100    ....    MOVT     r1,#0
        0x00002958:    f64062a9    @..b    MOV      r2,#0xea9
        0x0000295c:    f7fefaa8    ....    BL       __aeabi_assert ; 0xeb0
        0x00002960:    f640417c    @.|A    MOV      r1,#0xc7c
        0x00002964:    f2c20100    ....    MOVT     r1,#0x2000
        0x00002968:    f04f32ff    O..2    MOV      r2,#0xffffffff
        0x0000296c:    2001        .       MOVS     r0,#1
        0x0000296e:    f3808810    ....    MSR      PRIMASK,r0
        0x00002972:    600a        .`      STR      r2,[r1,#0]
        0x00002974:    f64041ec    @..A    MOV      r1,#0xcec
        0x00002978:    f2c20100    ....    MOVT     r1,#0x2000
        0x0000297c:    6008        .`      STR      r0,[r1,#0]
        0x0000297e:    f6405018    @..P    MOV      r0,#0xd18
        0x00002982:    f2c20000    ....    MOVT     r0,#0x2000
        0x00002986:    2100        .!      MOVS     r1,#0
        0x00002988:    6001        .`      STR      r1,[r0,#0]
        0x0000298a:    f000f867    ..g.    BL       xPortStartScheduler ; 0x2a5c
        0x0000298e:    f6440000    D...    MOVW     r0,#0x4800
        0x00002992:    f2c00000    ....    MOVT     r0,#0
        0x00002996:    6800        .h      LDR      r0,[r0,#0]
        0x00002998:    b00a        ..      ADD      sp,sp,#0x28
        0x0000299a:    bdb0        ..      POP      {r4,r5,r7,pc}
    $d
        0x0000299c:    74655278    xRet    DCD    1952797304
        0x000029a0:    206e7275    urn     DCD    544109173
        0x000029a4:    28203d21    != (    DCD    673201441
        0x000029a8:    20312d20     -1     DCD    540093728
        0x000029ac:    00000029    )...    DCD    41
    $t
    vTaskSuspendAll
        0x000029b0:    f240705c    @.\p    MOV      r0,#0x75c
        0x000029b4:    f2c20000    ....    MOVT     r0,#0x2000
        0x000029b8:    6801        .h      LDR      r1,[r0,#0]
        0x000029ba:    3101        .1      ADDS     r1,#1
        0x000029bc:    6001        .`      STR      r1,[r0,#0]
        0x000029be:    4770        pG      BX       lr
    __tagsym$$used.0
    vTaskSwitchContext
        0x000029c0:    f240705c    @.\p    MOV      r0,#0x75c
        0x000029c4:    f2c20000    ....    MOVT     r0,#0x2000
        0x000029c8:    6800        .h      LDR      r0,[r0,#0]
        0x000029ca:    b130        0.      CBZ      r0,0x29da ; vTaskSwitchContext + 26
        0x000029cc:    f6405024    @.$P    MOV      r0,#0xd24
        0x000029d0:    f2c20000    ....    MOVT     r0,#0x2000
        0x000029d4:    2101        .!      MOVS     r1,#1
        0x000029d6:    6001        .`      STR      r1,[r0,#0]
        0x000029d8:    4770        pG      BX       lr
        0x000029da:    f6405024    @.$P    MOV      r0,#0xd24
        0x000029de:    f2c20000    ....    MOVT     r0,#0x2000
        0x000029e2:    2100        .!      MOVS     r1,#0
        0x000029e4:    f2407c64    @.d|    MOV      r12,#0x764
        0x000029e8:    6001        .`      STR      r1,[r0,#0]
        0x000029ea:    f2c20c00    ....    MOVT     r12,#0x2000
        0x000029ee:    f8dc1000    ....    LDR      r1,[r12,#0]
        0x000029f2:    f24063ec    @..c    MOV      r3,#0x6ec
        0x000029f6:    eb010281    ....    ADD      r2,r1,r1,LSL #2
        0x000029fa:    f2c20300    ....    MOVT     r3,#0x2000
        0x000029fe:    f8530022    S.".    LDR      r0,[r3,r2,LSL #2]
        0x00002a02:    eb030282    ....    ADD      r2,r3,r2,LSL #2
        0x00002a06:    b928        (.      CBNZ     r0,0x2a14 ; vTaskSwitchContext + 84
        0x00002a08:    b1b9        ..      CBZ      r1,0x2a3a ; vTaskSwitchContext + 122
        0x00002a0a:    f8520d14    R...    LDR      r0,[r2,#-0x14]!
        0x00002a0e:    3901        .9      SUBS     r1,#1
        0x00002a10:    2800        .(      CMP      r0,#0
        0x00002a12:    d0f9        ..      BEQ      0x2a08 ; vTaskSwitchContext + 72
        0x00002a14:    6850        Ph      LDR      r0,[r2,#4]
        0x00002a16:    6843        Ch      LDR      r3,[r0,#4]
        0x00002a18:    f1020008    ....    ADD      r0,r2,#8
        0x00002a1c:    4283        .B      CMP      r3,r0
        0x00002a1e:    6053        S`      STR      r3,[r2,#4]
        0x00002a20:    d101        ..      BNE      0x2a26 ; vTaskSwitchContext + 102
        0x00002a22:    68d3        .h      LDR      r3,[r2,#0xc]
        0x00002a24:    6053        S`      STR      r3,[r2,#4]
        0x00002a26:    68d8        .h      LDR      r0,[r3,#0xc]
        0x00002a28:    f24062d8    @..b    MOVW     r2,#0x6d8
        0x00002a2c:    f2c20200    ....    MOVT     r2,#0x2000
        0x00002a30:    6010        .`      STR      r0,[r2,#0]
        0x00002a32:    f8cc1000    ....    STR      r1,[r12,#0]
        0x00002a36:    6810        .h      LDR      r0,[r2,#0]
        0x00002a38:    4770        pG      BX       lr
        0x00002a3a:    f244617c    D.|a    MOV      r1,#0x467c
        0x00002a3e:    a003        ..      ADR      r0,{pc}+0xe ; 0x2a4c
        0x00002a40:    f2c00100    ....    MOVT     r1,#0
        0x00002a44:    f24132fa    A..2    MOV      r2,#0x13fa
        0x00002a48:    f7fefa32    ..2.    BL       __aeabi_assert ; 0xeb0
    $d
        0x00002a4c:    6f547875    uxTo    DCD    1867806837
        0x00002a50:    69725070    pPri    DCD    1769099376
        0x00002a54:    7469726f    orit    DCD    1953067631
        0x00002a58:    00000079    y...    DCD    121
    $t
    xPortStartScheduler
        0x00002a5c:    f64e5022    N."P    MOV      r0,#0xed22
        0x00002a60:    f2ce0000    ....    MOVT     r0,#0xe000
        0x00002a64:    21f0        .!      MOVS     r1,#0xf0
        0x00002a66:    7001        .p      STRB     r1,[r0,#0]
        0x00002a68:    f7fffe3e    ..>.    BL       vPortSetupTimerInterrupt ; 0x26e8
        0x00002a6c:    f64e7034    N.4p    MOV      r0,#0xef34
        0x00002a70:    f2ce0000    ....    MOVT     r0,#0xe000
        0x00002a74:    6801        .h      LDR      r1,[r0,#0]
        0x00002a76:    f0414140    A.@A    ORR      r1,r1,#0xc0000000
        0x00002a7a:    6001        .`      STR      r1,[r0,#0]
        0x00002a7c:    b662        b.      CPSIE    i
        0x00002a7e:    f3bf8f6f    ..o.    ISB      
        0x00002a82:    f3ef8c14    ....    MRS      r12,CONTROL
        0x00002a86:    f02c0c04    ,...    BIC      r12,r12,#4
        0x00002a8a:    f38c8814    ....    MSR      CONTROL,r12
        0x00002a8e:    f3bf8f6f    ..o.    ISB      
        0x00002a92:    df02        ..      SVC      #0x2 ; formerly SWI
        0x00002a94:    be00        ..      BKPT     #0
        0x00002a96:    e7fd        ..      B        0x2a94 ; xPortStartScheduler + 56
    xQueueCreateCountingSemaphoreStatic
        0x00002a98:    b5b0        ..      PUSH     {r4,r5,r7,lr}
        0x00002a9a:    b082        ..      SUB      sp,sp,#8
        0x00002a9c:    b180        ..      CBZ      r0,0x2ac0 ; xQueueCreateCountingSemaphoreStatic + 40
        0x00002a9e:    460d        .F      MOV      r5,r1
        0x00002aa0:    4281        .B      CMP      r1,r0
        0x00002aa2:    d80d        ..      BHI      0x2ac0 ; xQueueCreateCountingSemaphoreStatic + 40
        0x00002aa4:    4614        .F      MOV      r4,r2
        0x00002aa6:    f04f0c00    O...    MOV      r12,#0
        0x00002aaa:    2100        .!      MOVS     r1,#0
        0x00002aac:    2200        ."      MOVS     r2,#0
        0x00002aae:    4623        #F      MOV      r3,r4
        0x00002ab0:    f8cdc000    ....    STR      r12,[sp,#0]
        0x00002ab4:    f000f812    ....    BL       xQueueGenericCreateStatic ; 0x2adc
        0x00002ab8:    4620         F      MOV      r0,r4
        0x00002aba:    63a5        .c      STR      r5,[r4,#0x38]
        0x00002abc:    b002        ..      ADD      sp,sp,#8
        0x00002abe:    bdb0        ..      POP      {r4,r5,r7,pc}
        0x00002ac0:    f244419d    D..A    MOV      r1,#0x449d
        0x00002ac4:    a003        ..      ADR      r0,{pc}+0x10 ; 0x2ad4
        0x00002ac6:    f2c00100    ....    MOVT     r1,#0
        0x00002aca:    f44f725e    O.^r    MOV      r2,#0x378
        0x00002ace:    f7fef9ef    ....    BL       __aeabi_assert ; 0xeb0
        0x00002ad2:    bf00        ..      NOP      
    $d
        0x00002ad4:    6e614878    xHan    DCD    1851869304
        0x00002ad8:    00656c64    dle.    DCD    6646884
    $t
    xQueueGenericCreateStatic
        0x00002adc:    b510        ..      PUSH     {r4,lr}
        0x00002ade:    b082        ..      SUB      sp,sp,#8
        0x00002ae0:    b30b        ..      CBZ      r3,0x2b26 ; xQueueGenericCreateStatic + 74
        0x00002ae2:    b1b8        ..      CBZ      r0,0x2b14 ; xQueueGenericCreateStatic + 56
        0x00002ae4:    461c        .F      MOV      r4,r3
        0x00002ae6:    b901        ..      CBNZ     r1,0x2aea ; xQueueGenericCreateStatic + 14
        0x00002ae8:    b9a2        ..      CBNZ     r2,0x2b14 ; xQueueGenericCreateStatic + 56
        0x00002aea:    b101        ..      CBZ      r1,0x2aee ; xQueueGenericCreateStatic + 18
        0x00002aec:    b192        ..      CBZ      r2,0x2b14 ; xQueueGenericCreateStatic + 56
        0x00002aee:    2348        H#      MOVS     r3,#0x48
        0x00002af0:    9301        ..      STR      r3,[sp,#4]
        0x00002af2:    9b01        ..      LDR      r3,[sp,#4]
        0x00002af4:    2b48        H+      CMP      r3,#0x48
        0x00002af6:    d11f        ..      BNE      0x2b38 ; xQueueGenericCreateStatic + 92
        0x00002af8:    9b01        ..      LDR      r3,[sp,#4]
        0x00002afa:    2900        .)      CMP      r1,#0
        0x00002afc:    bf08        ..      IT       EQ
        0x00002afe:    4622        "F      MOVEQ    r2,r4
        0x00002b00:    e9c4010f    ....    STRD     r0,r1,[r4,#0x3c]
        0x00002b04:    4620         F      MOV      r0,r4
        0x00002b06:    2101        .!      MOVS     r1,#1
        0x00002b08:    6022        "`      STR      r2,[r4,#0]
        0x00002b0a:    f000f83b    ..;.    BL       xQueueGenericReset ; 0x2b84
        0x00002b0e:    4620         F      MOV      r0,r4
        0x00002b10:    b002        ..      ADD      sp,sp,#8
        0x00002b12:    bd10        ..      POP      {r4,pc}
        0x00002b14:    f244419d    D..A    MOV      r1,#0x449d
        0x00002b18:    a013        ..      ADR      r0,{pc}+0x50 ; 0x2b68
        0x00002b1a:    f2c00100    ....    MOVT     r1,#0
        0x00002b1e:    f44f72d8    O..r    MOV      r2,#0x1b0
        0x00002b22:    f7fef9c5    ....    BL       __aeabi_assert ; 0xeb0
        0x00002b26:    f244419d    D..A    MOV      r1,#0x449d
        0x00002b2a:    a012        ..      ADR      r0,{pc}+0x4a ; 0x2b74
        0x00002b2c:    f2c00100    ....    MOVT     r1,#0
        0x00002b30:    f44f72c2    O..r    MOV      r2,#0x184
        0x00002b34:    f7fef9bc    ....    BL       __aeabi_assert ; 0xeb0
        0x00002b38:    f244419d    D..A    MOV      r1,#0x449d
        0x00002b3c:    a003        ..      ADR      r0,{pc}+0x10 ; 0x2b4c
        0x00002b3e:    f2c00100    ....    MOVT     r1,#0
        0x00002b42:    f44f72cb    O..r    MOV      r2,#0x196
        0x00002b46:    f7fef9b3    ....    BL       __aeabi_assert ; 0xeb0
        0x00002b4a:    bf00        ..      NOP      
    $d
        0x00002b4c:    7a695378    xSiz    DCD    2053723000
        0x00002b50:    3d3d2065    e ==    DCD    1027416165
        0x00002b54:    7a697320     siz    DCD    2053731104
        0x00002b58:    28666f65    eof(    DCD    677801829
        0x00002b5c:    65755120     Que    DCD    1702187296
        0x00002b60:    745f6575    ue_t    DCD    1952408949
        0x00002b64:    00002920     )..    DCD    10528
        0x00002b68:    654e7870    pxNe    DCD    1699641456
        0x00002b6c:    65755177    wQue    DCD    1702187383
        0x00002b70:    00006575    ue..    DCD    25973
        0x00002b74:    74537870    pxSt    DCD    1951627376
        0x00002b78:    63697461    atic    DCD    1667855457
        0x00002b7c:    75657551    Queu    DCD    1969583441
        0x00002b80:    00000065    e...    DCD    101
    $t
    xQueueGenericReset
        0x00002b84:    b570        p.      PUSH     {r4-r6,lr}
        0x00002b86:    2800        .(      CMP      r0,#0
        0x00002b88:    d044        D.      BEQ      0x2c14 ; xQueueGenericReset + 144
        0x00002b8a:    4604        .F      MOV      r4,r0
        0x00002b8c:    6bc0        .k      LDR      r0,[r0,#0x3c]
        0x00002b8e:    b3c0        ..      CBZ      r0,0x2c02 ; xQueueGenericReset + 126
        0x00002b90:    460e        .F      MOV      r6,r1
        0x00002b92:    6c21        !l      LDR      r1,[r4,#0x40]
        0x00002b94:    fba00101    ....    UMULL    r0,r1,r0,r1
        0x00002b98:    bb99        ..      CBNZ     r1,0x2c02 ; xQueueGenericReset + 126
        0x00002b9a:    f7fffd3a    ..:.    BL       vPortEnterCritical ; 0x2612
        0x00002b9e:    e9d4010f    ....    LDRD     r0,r1,[r4,#0x3c]
        0x00002ba2:    6822        "h      LDR      r2,[r4,#0]
        0x00002ba4:    2500        .%      MOVS     r5,#0
        0x00002ba6:    63a5        .c      STR      r5,[r4,#0x38]
        0x00002ba8:    fb012300    ...#    MLA      r3,r1,r0,r2
        0x00002bac:    3801        .8      SUBS     r0,#1
        0x00002bae:    fb002001    ...     MLA      r0,r0,r1,r2
        0x00002bb2:    e9c42301    ...#    STRD     r2,r3,[r4,#4]
        0x00002bb6:    60e0        .`      STR      r0,[r4,#0xc]
        0x00002bb8:    20ff        .       MOVS     r0,#0xff
        0x00002bba:    f8840044    ..D.    STRB     r0,[r4,#0x44]
        0x00002bbe:    f8840045    ..E.    STRB     r0,[r4,#0x45]
        0x00002bc2:    f1040010    ....    ADD      r0,r4,#0x10
        0x00002bc6:    b14e        N.      CBZ      r6,0x2bdc ; xQueueGenericReset + 88
        0x00002bc8:    f7fffcf7    ....    BL       vListInitialise ; 0x25ba
        0x00002bcc:    f1040024    ..$.    ADD      r0,r4,#0x24
        0x00002bd0:    f7fffcf3    ....    BL       vListInitialise ; 0x25ba
        0x00002bd4:    f7fffd44    ..D.    BL       vPortExitCritical ; 0x2660
        0x00002bd8:    2001        .       MOVS     r0,#1
        0x00002bda:    bd70        p.      POP      {r4-r6,pc}
        0x00002bdc:    6801        .h      LDR      r1,[r0,#0]
        0x00002bde:    2900        .)      CMP      r1,#0
        0x00002be0:    d0f8        ..      BEQ      0x2bd4 ; xQueueGenericReset + 80
        0x00002be2:    f000fcee    ....    BL       xTaskRemoveFromEventList ; 0x35c2
        0x00002be6:    2800        .(      CMP      r0,#0
        0x00002be8:    d0f4        ..      BEQ      0x2bd4 ; xQueueGenericReset + 80
        0x00002bea:    f64e5004    N..P    MOV      r0,#0xed04
        0x00002bee:    f2ce0000    ....    MOVT     r0,#0xe000
        0x00002bf2:    f04f5180    O..Q    MOV      r1,#0x10000000
        0x00002bf6:    6001        .`      STR      r1,[r0,#0]
        0x00002bf8:    f3bf8f4f    ..O.    DSB      
        0x00002bfc:    f3bf8f6f    ..o.    ISB      
        0x00002c00:    e7e8        ..      B        0x2bd4 ; xQueueGenericReset + 80
        0x00002c02:    f244419d    D..A    MOV      r1,#0x449d
        0x00002c06:    a009        ..      ADR      r0,{pc}+0x26 ; 0x2c2c
        0x00002c08:    f2c00100    ....    MOVT     r1,#0
        0x00002c0c:    f44f72b6    O..r    MOV      r2,#0x16c
        0x00002c10:    f7fef94e    ..N.    BL       __aeabi_assert ; 0xeb0
        0x00002c14:    f24440f5    D..@    MOV      r0,#0x44f5
        0x00002c18:    f244419d    D..A    MOV      r1,#0x449d
        0x00002c1c:    f2c00000    ....    MOVT     r0,#0
        0x00002c20:    f2c00100    ....    MOVT     r1,#0
        0x00002c24:    f2401237    @.7.    MOV      r2,#0x137
        0x00002c28:    f7fef942    ..B.    BL       __aeabi_assert ; 0xeb0
    $d
        0x00002c2c:    74655278    xRet    DCD    1952797304
        0x00002c30:    206e7275    urn     DCD    544109173
        0x00002c34:    28203d21    != (    DCD    673201441
        0x00002c38:    28202820     ( (    DCD    673196064
        0x00002c3c:    73614220     Bas    DCD    1935753760
        0x00002c40:    70795465    eTyp    DCD    1886999653
        0x00002c44:    20745f65    e_t     DCD    544497509
        0x00002c48:    20302029    ) 0     DCD    540024873
        0x00002c4c:    00292029    ) ).    DCD    2695209
    $t
    xQueueGenericSend
        0x00002c50:    e92d4ff0    -..O    PUSH     {r4-r11,lr}
        0x00002c54:    b085        ..      SUB      sp,sp,#0x14
        0x00002c56:    2800        .(      CMP      r0,#0
        0x00002c58:    9204        ..      STR      r2,[sp,#0x10]
        0x00002c5a:    f000809d    ....    BEQ.W    0x2d98 ; xQueueGenericSend + 328
        0x00002c5e:    4699        .F      MOV      r9,r3
        0x00002c60:    4615        .F      MOV      r5,r2
        0x00002c62:    4604        .F      MOV      r4,r0
        0x00002c64:    b919        ..      CBNZ     r1,0x2c6e ; xQueueGenericSend + 30
        0x00002c66:    6c20         l      LDR      r0,[r4,#0x40]
        0x00002c68:    2800        .(      CMP      r0,#0
        0x00002c6a:    f04080b9    @...    BNE.W    0x2de0 ; xQueueGenericSend + 400
        0x00002c6e:    f1b90f02    ....    CMP      r9,#2
        0x00002c72:    d103        ..      BNE      0x2c7c ; xQueueGenericSend + 44
        0x00002c74:    6be0        .k      LDR      r0,[r4,#0x3c]
        0x00002c76:    2801        .(      CMP      r0,#1
        0x00002c78:    f04080a6    @...    BNE.W    0x2dc8 ; xQueueGenericSend + 376
        0x00002c7c:    9101        ..      STR      r1,[sp,#4]
        0x00002c7e:    f000fbbf    ....    BL       xTaskGetSchedulerState ; 0x3400
        0x00002c82:    b910        ..      CBNZ     r0,0x2c8a ; xQueueGenericSend + 58
        0x00002c84:    2d00        .-      CMP      r5,#0
        0x00002c86:    f0408093    @...    BNE.W    0x2db0 ; xQueueGenericSend + 352
        0x00002c8a:    f7fffcc2    ....    BL       vPortEnterCritical ; 0x2612
        0x00002c8e:    6ba0        .k      LDR      r0,[r4,#0x38]
        0x00002c90:    f1b90f02    ....    CMP      r9,#2
        0x00002c94:    d059        Y.      BEQ      0x2d4a ; xQueueGenericSend + 250
        0x00002c96:    6be1        .k      LDR      r1,[r4,#0x3c]
        0x00002c98:    4288        .B      CMP      r0,r1
        0x00002c9a:    d356        V.      BCC      0x2d4a ; xQueueGenericSend + 250
        0x00002c9c:    f1040710    ....    ADD      r7,r4,#0x10
        0x00002ca0:    2001        .       MOVS     r0,#1
        0x00002ca2:    ae02        ..      ADD      r6,sp,#8
        0x00002ca4:    f04f0a00    O...    MOV      r10,#0
        0x00002ca8:    ad04        ..      ADD      r5,sp,#0x10
        0x00002caa:    bf00        ..      NOP      
        0x00002cac:    9904        ..      LDR      r1,[sp,#0x10]
        0x00002cae:    2900        .)      CMP      r1,#0
        0x00002cb0:    d066        f.      BEQ      0x2d80 ; xQueueGenericSend + 304
        0x00002cb2:    07c0        ..      LSLS     r0,r0,#31
        0x00002cb4:    bf1c        ..      ITT      NE
        0x00002cb6:    4630        0F      MOVNE    r0,r6
        0x00002cb8:    f7fffdb7    ....    BLNE     vTaskInternalSetTimeOutState ; 0x282a
        0x00002cbc:    f7fffcd0    ....    BL       vPortExitCritical ; 0x2660
        0x00002cc0:    f7fffe76    ..v.    BL       vTaskSuspendAll ; 0x29b0
        0x00002cc4:    f7fffca5    ....    BL       vPortEnterCritical ; 0x2612
        0x00002cc8:    f8940044    ..D.    LDRB     r0,[r4,#0x44]
        0x00002ccc:    28ff        .(      CMP      r0,#0xff
        0x00002cce:    bf08        ..      IT       EQ
        0x00002cd0:    f884a044    ..D.    STRBEQ   r10,[r4,#0x44]
        0x00002cd4:    f8940045    ..E.    LDRB     r0,[r4,#0x45]
        0x00002cd8:    28ff        .(      CMP      r0,#0xff
        0x00002cda:    bf08        ..      IT       EQ
        0x00002cdc:    f884a045    ..E.    STRBEQ   r10,[r4,#0x45]
        0x00002ce0:    f7fffcbe    ....    BL       vPortExitCritical ; 0x2660
        0x00002ce4:    4630        0F      MOV      r0,r6
        0x00002ce6:    4629        )F      MOV      r1,r5
        0x00002ce8:    f000fa0e    ....    BL       xTaskCheckForTimeOut ; 0x3108
        0x00002cec:    2800        .(      CMP      r0,#0
        0x00002cee:    d14a        J.      BNE      0x2d86 ; xQueueGenericSend + 310
        0x00002cf0:    f7fffc8f    ....    BL       vPortEnterCritical ; 0x2612
        0x00002cf4:    f8d4b038    ..8.    LDR      r11,[r4,#0x38]
        0x00002cf8:    f8d4803c    ..<.    LDR      r8,[r4,#0x3c]
        0x00002cfc:    f7fffcb0    ....    BL       vPortExitCritical ; 0x2660
        0x00002d00:    45c3        .E      CMP      r11,r8
        0x00002d02:    d115        ..      BNE      0x2d30 ; xQueueGenericSend + 224
        0x00002d04:    9904        ..      LDR      r1,[sp,#0x10]
        0x00002d06:    4638        8F      MOV      r0,r7
        0x00002d08:    f7fffda3    ....    BL       vTaskPlaceOnEventList ; 0x2852
        0x00002d0c:    4620         F      MOV      r0,r4
        0x00002d0e:    f7fff9df    ....    BL       prvUnlockQueue ; 0x20d0
        0x00002d12:    f000fccf    ....    BL       xTaskResumeAll ; 0x36b4
        0x00002d16:    b980        ..      CBNZ     r0,0x2d3a ; xQueueGenericSend + 234
        0x00002d18:    f64e5004    N..P    MOV      r0,#0xed04
        0x00002d1c:    f2ce0000    ....    MOVT     r0,#0xe000
        0x00002d20:    f04f5180    O..Q    MOV      r1,#0x10000000
        0x00002d24:    6001        .`      STR      r1,[r0,#0]
        0x00002d26:    f3bf8f4f    ..O.    DSB      
        0x00002d2a:    f3bf8f6f    ..o.    ISB      
        0x00002d2e:    e004        ..      B        0x2d3a ; xQueueGenericSend + 234
        0x00002d30:    4620         F      MOV      r0,r4
        0x00002d32:    f7fff9cd    ....    BL       prvUnlockQueue ; 0x20d0
        0x00002d36:    f000fcbd    ....    BL       xTaskResumeAll ; 0x36b4
        0x00002d3a:    f7fffc6a    ..j.    BL       vPortEnterCritical ; 0x2612
        0x00002d3e:    6ba0        .k      LDR      r0,[r4,#0x38]
        0x00002d40:    6be1        .k      LDR      r1,[r4,#0x3c]
        0x00002d42:    4288        .B      CMP      r0,r1
        0x00002d44:    f04f0000    O...    MOV      r0,#0
        0x00002d48:    d2b0        ..      BCS      0x2cac ; xQueueGenericSend + 92
        0x00002d4a:    9901        ..      LDR      r1,[sp,#4]
        0x00002d4c:    4620         F      MOV      r0,r4
        0x00002d4e:    464a        JF      MOV      r2,r9
        0x00002d50:    f7fff821    ..!.    BL       prvCopyDataToQueue ; 0x1d96
        0x00002d54:    f8540f24    T.$.    LDR      r0,[r4,#0x24]!
        0x00002d58:    b170        p.      CBZ      r0,0x2d78 ; xQueueGenericSend + 296
        0x00002d5a:    4620         F      MOV      r0,r4
        0x00002d5c:    f000fc31    ..1.    BL       xTaskRemoveFromEventList ; 0x35c2
        0x00002d60:    b150        P.      CBZ      r0,0x2d78 ; xQueueGenericSend + 296
        0x00002d62:    f64e5004    N..P    MOV      r0,#0xed04
        0x00002d66:    f2ce0000    ....    MOVT     r0,#0xe000
        0x00002d6a:    f04f5180    O..Q    MOV      r1,#0x10000000
        0x00002d6e:    6001        .`      STR      r1,[r0,#0]
        0x00002d70:    f3bf8f4f    ..O.    DSB      
        0x00002d74:    f3bf8f6f    ..o.    ISB      
        0x00002d78:    f7fffc72    ..r.    BL       vPortExitCritical ; 0x2660
        0x00002d7c:    2001        .       MOVS     r0,#1
        0x00002d7e:    e008        ..      B        0x2d92 ; xQueueGenericSend + 322
        0x00002d80:    f7fffc6e    ..n.    BL       vPortExitCritical ; 0x2660
        0x00002d84:    e004        ..      B        0x2d90 ; xQueueGenericSend + 320
        0x00002d86:    4620         F      MOV      r0,r4
        0x00002d88:    f7fff9a2    ....    BL       prvUnlockQueue ; 0x20d0
        0x00002d8c:    f000fc92    ....    BL       xTaskResumeAll ; 0x36b4
        0x00002d90:    2000        .       MOVS     r0,#0
        0x00002d92:    b005        ..      ADD      sp,sp,#0x14
        0x00002d94:    e8bd8ff0    ....    POP      {r4-r11,pc}
        0x00002d98:    f24440f5    D..@    MOV      r0,#0x44f5
        0x00002d9c:    f244419d    D..A    MOV      r1,#0x449d
        0x00002da0:    f2c00000    ....    MOVT     r0,#0
        0x00002da4:    f2c00100    ....    MOVT     r1,#0
        0x00002da8:    f24032b6    @..2    MOV      r2,#0x3b6
        0x00002dac:    f7fef880    ....    BL       __aeabi_assert ; 0xeb0
        0x00002db0:    f24420d1    D..     MOV      r0,#0x42d1
        0x00002db4:    f244419d    D..A    MOV      r1,#0x449d
        0x00002db8:    f2c00000    ....    MOVT     r0,#0
        0x00002dbc:    f2c00100    ....    MOVT     r1,#0
        0x00002dc0:    f24032bb    @..2    MOV      r2,#0x3bb
        0x00002dc4:    f7fef874    ..t.    BL       __aeabi_assert ; 0xeb0
        0x00002dc8:    f2443024    D.$0    MOV      r0,#0x4324
        0x00002dcc:    f244419d    D..A    MOV      r1,#0x449d
        0x00002dd0:    f2c00000    ....    MOVT     r0,#0
        0x00002dd4:    f2c00100    ....    MOVT     r1,#0
        0x00002dd8:    f44f726e    O.nr    MOV      r2,#0x3b8
        0x00002ddc:    f7fef868    ..h.    BL       __aeabi_assert ; 0xeb0
        0x00002de0:    f24430c1    D..0    MOV      r0,#0x43c1
        0x00002de4:    f244419d    D..A    MOV      r1,#0x449d
        0x00002de8:    f2c00000    ....    MOVT     r0,#0
        0x00002dec:    f2c00100    ....    MOVT     r1,#0
        0x00002df0:    f24032b7    @..2    MOV      r2,#0x3b7
        0x00002df4:    f7fef85c    ..\.    BL       __aeabi_assert ; 0xeb0
    xQueueReceive
        0x00002df8:    e92d4ff0    -..O    PUSH     {r4-r11,lr}
        0x00002dfc:    b083        ..      SUB      sp,sp,#0xc
        0x00002dfe:    2800        .(      CMP      r0,#0
        0x00002e00:    9202        ..      STR      r2,[sp,#8]
        0x00002e02:    f00080a2    ....    BEQ.W    0x2f4a ; xQueueReceive + 338
        0x00002e06:    4616        .F      MOV      r6,r2
        0x00002e08:    4689        .F      MOV      r9,r1
        0x00002e0a:    4604        .F      MOV      r4,r0
        0x00002e0c:    b919        ..      CBNZ     r1,0x2e16 ; xQueueReceive + 30
        0x00002e0e:    6c20         l      LDR      r0,[r4,#0x40]
        0x00002e10:    2800        .(      CMP      r0,#0
        0x00002e12:    f04080b2    @...    BNE.W    0x2f7a ; xQueueReceive + 386
        0x00002e16:    f000faf3    ....    BL       xTaskGetSchedulerState ; 0x3400
        0x00002e1a:    b910        ..      CBNZ     r0,0x2e22 ; xQueueReceive + 42
        0x00002e1c:    2e00        ..      CMP      r6,#0
        0x00002e1e:    f04080a0    @...    BNE.W    0x2f62 ; xQueueReceive + 362
        0x00002e22:    f7fffbf6    ....    BL       vPortEnterCritical ; 0x2612
        0x00002e26:    f8d4a038    ..8.    LDR      r10,[r4,#0x38]
        0x00002e2a:    f1ba0f00    ....    CMP      r10,#0
        0x00002e2e:    d028        (.      BEQ      0x2e82 ; xQueueReceive + 138
        0x00002e30:    6c22        "l      LDR      r2,[r4,#0x40]
        0x00002e32:    b152        R.      CBZ      r2,0x2e4a ; xQueueReceive + 82
        0x00002e34:    e9d40102    ....    LDRD     r0,r1,[r4,#8]
        0x00002e38:    4411        .D      ADD      r1,r1,r2
        0x00002e3a:    60e1        .`      STR      r1,[r4,#0xc]
        0x00002e3c:    4281        .B      CMP      r1,r0
        0x00002e3e:    bf24        $.      ITT      CS
        0x00002e40:    6821        !h      LDRCS    r1,[r4,#0]
        0x00002e42:    60e1        .`      STRCS    r1,[r4,#0xc]
        0x00002e44:    4648        HF      MOV      r0,r9
        0x00002e46:    f7fdf91f    ....    BL       __aeabi_memcpy ; 0x88
        0x00002e4a:    f8540f10    T...    LDR      r0,[r4,#0x10]!
        0x00002e4e:    f1aa0101    ....    SUB      r1,r10,#1
        0x00002e52:    62a1        .b      STR      r1,[r4,#0x28]
        0x00002e54:    b170        p.      CBZ      r0,0x2e74 ; xQueueReceive + 124
        0x00002e56:    4620         F      MOV      r0,r4
        0x00002e58:    f000fbb3    ....    BL       xTaskRemoveFromEventList ; 0x35c2
        0x00002e5c:    b150        P.      CBZ      r0,0x2e74 ; xQueueReceive + 124
        0x00002e5e:    f64e5004    N..P    MOV      r0,#0xed04
        0x00002e62:    f2ce0000    ....    MOVT     r0,#0xe000
        0x00002e66:    f04f5180    O..Q    MOV      r1,#0x10000000
        0x00002e6a:    6001        .`      STR      r1,[r0,#0]
        0x00002e6c:    f3bf8f4f    ..O.    DSB      
        0x00002e70:    f3bf8f6f    ..o.    ISB      
        0x00002e74:    2401        .$      MOVS     r4,#1
        0x00002e76:    f7fffbf3    ....    BL       vPortExitCritical ; 0x2660
        0x00002e7a:    4620         F      MOV      r0,r4
        0x00002e7c:    b003        ..      ADD      sp,sp,#0xc
        0x00002e7e:    e8bd8ff0    ....    POP      {r4-r11,pc}
        0x00002e82:    f1040824    ..$.    ADD      r8,r4,#0x24
        0x00002e86:    2001        .       MOVS     r0,#1
        0x00002e88:    466f        oF      MOV      r7,sp
        0x00002e8a:    f04f0b00    O...    MOV      r11,#0
        0x00002e8e:    ae02        ..      ADD      r6,sp,#8
        0x00002e90:    9902        ..      LDR      r1,[sp,#8]
        0x00002e92:    2900        .)      CMP      r1,#0
        0x00002e94:    d055        U.      BEQ      0x2f42 ; xQueueReceive + 330
        0x00002e96:    07c0        ..      LSLS     r0,r0,#31
        0x00002e98:    bf1c        ..      ITT      NE
        0x00002e9a:    4638        8F      MOVNE    r0,r7
        0x00002e9c:    f7fffcc5    ....    BLNE     vTaskInternalSetTimeOutState ; 0x282a
        0x00002ea0:    f7fffbde    ....    BL       vPortExitCritical ; 0x2660
        0x00002ea4:    f7fffd84    ....    BL       vTaskSuspendAll ; 0x29b0
        0x00002ea8:    f7fffbb3    ....    BL       vPortEnterCritical ; 0x2612
        0x00002eac:    f8940044    ..D.    LDRB     r0,[r4,#0x44]
        0x00002eb0:    28ff        .(      CMP      r0,#0xff
        0x00002eb2:    bf08        ..      IT       EQ
        0x00002eb4:    f884b044    ..D.    STRBEQ   r11,[r4,#0x44]
        0x00002eb8:    f8940045    ..E.    LDRB     r0,[r4,#0x45]
        0x00002ebc:    28ff        .(      CMP      r0,#0xff
        0x00002ebe:    bf08        ..      IT       EQ
        0x00002ec0:    f884b045    ..E.    STRBEQ   r11,[r4,#0x45]
        0x00002ec4:    f7fffbcc    ....    BL       vPortExitCritical ; 0x2660
        0x00002ec8:    4638        8F      MOV      r0,r7
        0x00002eca:    4631        1F      MOV      r1,r6
        0x00002ecc:    f000f91c    ....    BL       xTaskCheckForTimeOut ; 0x3108
        0x00002ed0:    b160        `.      CBZ      r0,0x2eec ; xQueueReceive + 244
        0x00002ed2:    4620         F      MOV      r0,r4
        0x00002ed4:    f7fff8fc    ....    BL       prvUnlockQueue ; 0x20d0
        0x00002ed8:    f000fbec    ....    BL       xTaskResumeAll ; 0x36b4
        0x00002edc:    f7fffb99    ....    BL       vPortEnterCritical ; 0x2612
        0x00002ee0:    6ba5        .k      LDR      r5,[r4,#0x38]
        0x00002ee2:    f7fffbbd    ....    BL       vPortExitCritical ; 0x2660
        0x00002ee6:    bb1d        ..      CBNZ     r5,0x2f30 ; xQueueReceive + 312
        0x00002ee8:    e02d        -.      B        0x2f46 ; xQueueReceive + 334
        0x00002eea:    bf00        ..      NOP      
        0x00002eec:    f7fffb91    ....    BL       vPortEnterCritical ; 0x2612
        0x00002ef0:    6ba5        .k      LDR      r5,[r4,#0x38]
        0x00002ef2:    f7fffbb5    ....    BL       vPortExitCritical ; 0x2660
        0x00002ef6:    b12d        -.      CBZ      r5,0x2f04 ; xQueueReceive + 268
        0x00002ef8:    4620         F      MOV      r0,r4
        0x00002efa:    f7fff8e9    ....    BL       prvUnlockQueue ; 0x20d0
        0x00002efe:    f000fbd9    ....    BL       xTaskResumeAll ; 0x36b4
        0x00002f02:    e015        ..      B        0x2f30 ; xQueueReceive + 312
        0x00002f04:    9902        ..      LDR      r1,[sp,#8]
        0x00002f06:    4640        @F      MOV      r0,r8
        0x00002f08:    f7fffca3    ....    BL       vTaskPlaceOnEventList ; 0x2852
        0x00002f0c:    4620         F      MOV      r0,r4
        0x00002f0e:    f7fff8df    ....    BL       prvUnlockQueue ; 0x20d0
        0x00002f12:    f000fbcf    ....    BL       xTaskResumeAll ; 0x36b4
        0x00002f16:    b958        X.      CBNZ     r0,0x2f30 ; xQueueReceive + 312
        0x00002f18:    f64e5004    N..P    MOV      r0,#0xed04
        0x00002f1c:    f2ce0000    ....    MOVT     r0,#0xe000
        0x00002f20:    f04f5180    O..Q    MOV      r1,#0x10000000
        0x00002f24:    6001        .`      STR      r1,[r0,#0]
        0x00002f26:    f3bf8f4f    ..O.    DSB      
        0x00002f2a:    f3bf8f6f    ..o.    ISB      
        0x00002f2e:    bf00        ..      NOP      
        0x00002f30:    f7fffb6f    ..o.    BL       vPortEnterCritical ; 0x2612
        0x00002f34:    f8d4a038    ..8.    LDR      r10,[r4,#0x38]
        0x00002f38:    2000        .       MOVS     r0,#0
        0x00002f3a:    f1ba0f00    ....    CMP      r10,#0
        0x00002f3e:    d0a7        ..      BEQ      0x2e90 ; xQueueReceive + 152
        0x00002f40:    e776        v.      B        0x2e30 ; xQueueReceive + 56
        0x00002f42:    2400        .$      MOVS     r4,#0
        0x00002f44:    e797        ..      B        0x2e76 ; xQueueReceive + 126
        0x00002f46:    2400        .$      MOVS     r4,#0
        0x00002f48:    e797        ..      B        0x2e7a ; xQueueReceive + 130
        0x00002f4a:    f2444078    D.x@    MOV      r0,#0x4478
        0x00002f4e:    f244419d    D..A    MOV      r1,#0x449d
        0x00002f52:    f2c00000    ....    MOVT     r0,#0
        0x00002f56:    f2c00100    ....    MOVT     r1,#0
        0x00002f5a:    f24052e9    @..R    MOV      r2,#0x5e9
        0x00002f5e:    f7fdffa7    ....    BL       __aeabi_assert ; 0xeb0
        0x00002f62:    f24420d1    D..     MOV      r0,#0x42d1
        0x00002f66:    f244419d    D..A    MOV      r1,#0x449d
        0x00002f6a:    f2c00000    ....    MOVT     r0,#0
        0x00002f6e:    f2c00100    ....    MOVT     r1,#0
        0x00002f72:    f24052f2    @..R    MOV      r2,#0x5f2
        0x00002f76:    f7fdff9b    ....    BL       __aeabi_assert ; 0xeb0
        0x00002f7a:    f2443071    D.q0    MOV      r0,#0x4371
        0x00002f7e:    f244419d    D..A    MOV      r1,#0x449d
        0x00002f82:    f2c00000    ....    MOVT     r0,#0
        0x00002f86:    f2c00100    ....    MOVT     r1,#0
        0x00002f8a:    f24052ed    @..R    MOV      r2,#0x5ed
        0x00002f8e:    f7fdff8f    ....    BL       __aeabi_assert ; 0xeb0
        0x00002f92:    0000        ..      MOVS     r0,r0
    xQueueSemaphoreTake
        0x00002f94:    e92d4ff0    -..O    PUSH     {r4-r11,lr}
        0x00002f98:    b083        ..      SUB      sp,sp,#0xc
        0x00002f9a:    2800        .(      CMP      r0,#0
        0x00002f9c:    9102        ..      STR      r1,[sp,#8]
        0x00002f9e:    f000808e    ....    BEQ.W    0x30be ; xQueueSemaphoreTake + 298
        0x00002fa2:    4604        .F      MOV      r4,r0
        0x00002fa4:    6c00        .l      LDR      r0,[r0,#0x40]
        0x00002fa6:    2800        .(      CMP      r0,#0
        0x00002fa8:    f0408095    @...    BNE.W    0x30d6 ; xQueueSemaphoreTake + 322
        0x00002fac:    460d        .F      MOV      r5,r1
        0x00002fae:    f000fa27    ..'.    BL       xTaskGetSchedulerState ; 0x3400
        0x00002fb2:    b910        ..      CBNZ     r0,0x2fba ; xQueueSemaphoreTake + 38
        0x00002fb4:    2d00        .-      CMP      r5,#0
        0x00002fb6:    f040809a    @...    BNE.W    0x30ee ; xQueueSemaphoreTake + 346
        0x00002fba:    f7fffb2a    ..*.    BL       vPortEnterCritical ; 0x2612
        0x00002fbe:    6ba1        .k      LDR      r1,[r4,#0x38]
        0x00002fc0:    b1d1        ..      CBZ      r1,0x2ff8 ; xQueueSemaphoreTake + 100
        0x00002fc2:    f8540f10    T...    LDR      r0,[r4,#0x10]!
        0x00002fc6:    3901        .9      SUBS     r1,#1
        0x00002fc8:    62a1        .b      STR      r1,[r4,#0x28]
        0x00002fca:    b170        p.      CBZ      r0,0x2fea ; xQueueSemaphoreTake + 86
        0x00002fcc:    4620         F      MOV      r0,r4
        0x00002fce:    f000faf8    ....    BL       xTaskRemoveFromEventList ; 0x35c2
        0x00002fd2:    b150        P.      CBZ      r0,0x2fea ; xQueueSemaphoreTake + 86
        0x00002fd4:    f64e5004    N..P    MOV      r0,#0xed04
        0x00002fd8:    f2ce0000    ....    MOVT     r0,#0xe000
        0x00002fdc:    f04f5180    O..Q    MOV      r1,#0x10000000
        0x00002fe0:    6001        .`      STR      r1,[r0,#0]
        0x00002fe2:    f3bf8f4f    ..O.    DSB      
        0x00002fe6:    f3bf8f6f    ..o.    ISB      
        0x00002fea:    2401        .$      MOVS     r4,#1
        0x00002fec:    f7fffb38    ..8.    BL       vPortExitCritical ; 0x2660
        0x00002ff0:    4620         F      MOV      r0,r4
        0x00002ff2:    b003        ..      ADD      sp,sp,#0xc
        0x00002ff4:    e8bd8ff0    ....    POP      {r4-r11,pc}
        0x00002ff8:    f64e5904    N..Y    MOV      r9,#0xed04
        0x00002ffc:    f1040824    ..$.    ADD      r8,r4,#0x24
        0x00003000:    2001        .       MOVS     r0,#1
        0x00003002:    466e        nF      MOV      r6,sp
        0x00003004:    f04f0b00    O...    MOV      r11,#0
        0x00003008:    af02        ..      ADD      r7,sp,#8
        0x0000300a:    f2ce0900    ....    MOVT     r9,#0xe000
        0x0000300e:    f04f5a80    O..Z    MOV      r10,#0x10000000
        0x00003012:    bf00        ..      NOP      
        0x00003014:    9902        ..      LDR      r1,[sp,#8]
        0x00003016:    2900        .)      CMP      r1,#0
        0x00003018:    d04d        M.      BEQ      0x30b6 ; xQueueSemaphoreTake + 290
        0x0000301a:    07c0        ..      LSLS     r0,r0,#31
        0x0000301c:    bf1c        ..      ITT      NE
        0x0000301e:    4630        0F      MOVNE    r0,r6
        0x00003020:    f7fffc03    ....    BLNE     vTaskInternalSetTimeOutState ; 0x282a
        0x00003024:    f7fffb1c    ....    BL       vPortExitCritical ; 0x2660
        0x00003028:    f7fffcc2    ....    BL       vTaskSuspendAll ; 0x29b0
        0x0000302c:    f7fffaf1    ....    BL       vPortEnterCritical ; 0x2612
        0x00003030:    f8940044    ..D.    LDRB     r0,[r4,#0x44]
        0x00003034:    28ff        .(      CMP      r0,#0xff
        0x00003036:    bf08        ..      IT       EQ
        0x00003038:    f884b044    ..D.    STRBEQ   r11,[r4,#0x44]
        0x0000303c:    f8940045    ..E.    LDRB     r0,[r4,#0x45]
        0x00003040:    28ff        .(      CMP      r0,#0xff
        0x00003042:    bf08        ..      IT       EQ
        0x00003044:    f884b045    ..E.    STRBEQ   r11,[r4,#0x45]
        0x00003048:    f7fffb0a    ....    BL       vPortExitCritical ; 0x2660
        0x0000304c:    4630        0F      MOV      r0,r6
        0x0000304e:    4639        9F      MOV      r1,r7
        0x00003050:    f000f85a    ..Z.    BL       xTaskCheckForTimeOut ; 0x3108
        0x00003054:    b160        `.      CBZ      r0,0x3070 ; xQueueSemaphoreTake + 220
        0x00003056:    4620         F      MOV      r0,r4
        0x00003058:    f7fff83a    ..:.    BL       prvUnlockQueue ; 0x20d0
        0x0000305c:    f000fb2a    ..*.    BL       xTaskResumeAll ; 0x36b4
        0x00003060:    f7fffad7    ....    BL       vPortEnterCritical ; 0x2612
        0x00003064:    6ba5        .k      LDR      r5,[r4,#0x38]
        0x00003066:    f7fffafb    ....    BL       vPortExitCritical ; 0x2660
        0x0000306a:    b9ed        ..      CBNZ     r5,0x30a8 ; xQueueSemaphoreTake + 276
        0x0000306c:    e025        %.      B        0x30ba ; xQueueSemaphoreTake + 294
        0x0000306e:    bf00        ..      NOP      
        0x00003070:    f7fffacf    ....    BL       vPortEnterCritical ; 0x2612
        0x00003074:    6ba5        .k      LDR      r5,[r4,#0x38]
        0x00003076:    f7fffaf3    ....    BL       vPortExitCritical ; 0x2660
        0x0000307a:    b12d        -.      CBZ      r5,0x3088 ; xQueueSemaphoreTake + 244
        0x0000307c:    4620         F      MOV      r0,r4
        0x0000307e:    f7fff827    ..'.    BL       prvUnlockQueue ; 0x20d0
        0x00003082:    f000fb17    ....    BL       xTaskResumeAll ; 0x36b4
        0x00003086:    e00f        ..      B        0x30a8 ; xQueueSemaphoreTake + 276
        0x00003088:    9902        ..      LDR      r1,[sp,#8]
        0x0000308a:    4640        @F      MOV      r0,r8
        0x0000308c:    f7fffbe1    ....    BL       vTaskPlaceOnEventList ; 0x2852
        0x00003090:    4620         F      MOV      r0,r4
        0x00003092:    f7fff81d    ....    BL       prvUnlockQueue ; 0x20d0
        0x00003096:    f000fb0d    ....    BL       xTaskResumeAll ; 0x36b4
        0x0000309a:    b928        (.      CBNZ     r0,0x30a8 ; xQueueSemaphoreTake + 276
        0x0000309c:    f8c9a000    ....    STR      r10,[r9,#0]
        0x000030a0:    f3bf8f4f    ..O.    DSB      
        0x000030a4:    f3bf8f6f    ..o.    ISB      
        0x000030a8:    f7fffab3    ....    BL       vPortEnterCritical ; 0x2612
        0x000030ac:    6ba1        .k      LDR      r1,[r4,#0x38]
        0x000030ae:    2000        .       MOVS     r0,#0
        0x000030b0:    2900        .)      CMP      r1,#0
        0x000030b2:    d0af        ..      BEQ      0x3014 ; xQueueSemaphoreTake + 128
        0x000030b4:    e785        ..      B        0x2fc2 ; xQueueSemaphoreTake + 46
        0x000030b6:    2400        .$      MOVS     r4,#0
        0x000030b8:    e798        ..      B        0x2fec ; xQueueSemaphoreTake + 88
        0x000030ba:    2400        .$      MOVS     r4,#0
        0x000030bc:    e798        ..      B        0x2ff0 ; xQueueSemaphoreTake + 92
        0x000030be:    f2444078    D.x@    MOV      r0,#0x4478
        0x000030c2:    f244419d    D..A    MOV      r1,#0x449d
        0x000030c6:    f2c00000    ....    MOVT     r0,#0
        0x000030ca:    f2c00100    ....    MOVT     r1,#0
        0x000030ce:    f2406282    @..b    MOV      r2,#0x682
        0x000030d2:    f7fdfeed    ....    BL       __aeabi_assert ; 0xeb0
        0x000030d6:    f2444084    D..@    MOV      r0,#0x4484
        0x000030da:    f244419d    D..A    MOV      r1,#0x449d
        0x000030de:    f2c00000    ....    MOVT     r0,#0
        0x000030e2:    f2c00100    ....    MOVT     r1,#0
        0x000030e6:    f2406286    @..b    MOV      r2,#0x686
        0x000030ea:    f7fdfee1    ....    BL       __aeabi_assert ; 0xeb0
        0x000030ee:    f24420d1    D..     MOV      r0,#0x42d1
        0x000030f2:    f244419d    D..A    MOV      r1,#0x449d
        0x000030f6:    f2c00000    ....    MOVT     r0,#0
        0x000030fa:    f2c00100    ....    MOVT     r1,#0
        0x000030fe:    f240628b    @..b    MOV      r2,#0x68b
        0x00003102:    f7fdfed5    ....    BL       __aeabi_assert ; 0xeb0
        0x00003106:    0000        ..      MOVS     r0,r0
    xTaskCheckForTimeOut
        0x00003108:    b570        p.      PUSH     {r4-r6,lr}
        0x0000310a:    b368        h.      CBZ      r0,0x3168 ; xTaskCheckForTimeOut + 96
        0x0000310c:    460d        .F      MOV      r5,r1
        0x0000310e:    b3b9        ..      CBZ      r1,0x3180 ; xTaskCheckForTimeOut + 120
        0x00003110:    4604        .F      MOV      r4,r0
        0x00003112:    f7fffa7e    ..~.    BL       vPortEnterCritical ; 0x2612
        0x00003116:    f6405e18    @..^    MOV      lr,#0xd18
        0x0000311a:    f2c20e00    ....    MOVT     lr,#0x2000
        0x0000311e:    f8de3000    ...0    LDR      r3,[lr,#0]
        0x00003122:    6829        )h      LDR      r1,[r5,#0]
        0x00003124:    1c4a        J.      ADDS     r2,r1,#1
        0x00003126:    d016        ..      BEQ      0x3156 ; xTaskCheckForTimeOut + 78
        0x00003128:    f6404c80    @..L    MOVW     r12,#0xc80
        0x0000312c:    e9d40200    ....    LDRD     r0,r2,[r4,#0]
        0x00003130:    f2c20c00    ....    MOVT     r12,#0x2000
        0x00003134:    f8dc6000    ...`    LDR      r6,[r12,#0]
        0x00003138:    4286        .B      CMP      r6,r0
        0x0000313a:    d001        ..      BEQ      0x3140 ; xTaskCheckForTimeOut + 56
        0x0000313c:    4293        .B      CMP      r3,r2
        0x0000313e:    d20c        ..      BCS      0x315a ; xTaskCheckForTimeOut + 82
        0x00003140:    1a9a        ..      SUBS     r2,r3,r2
        0x00003142:    4291        .B      CMP      r1,r2
        0x00003144:    d909        ..      BLS      0x315a ; xTaskCheckForTimeOut + 82
        0x00003146:    1a88        ..      SUBS     r0,r1,r2
        0x00003148:    6028        (`      STR      r0,[r5,#0]
        0x0000314a:    f8dc0000    ....    LDR      r0,[r12,#0]
        0x0000314e:    6020         `      STR      r0,[r4,#0]
        0x00003150:    f8de0000    ....    LDR      r0,[lr,#0]
        0x00003154:    6060        ``      STR      r0,[r4,#4]
        0x00003156:    2400        .$      MOVS     r4,#0
        0x00003158:    e002        ..      B        0x3160 ; xTaskCheckForTimeOut + 88
        0x0000315a:    2000        .       MOVS     r0,#0
        0x0000315c:    2401        .$      MOVS     r4,#1
        0x0000315e:    6028        (`      STR      r0,[r5,#0]
        0x00003160:    f7fffa7e    ..~.    BL       vPortExitCritical ; 0x2660
        0x00003164:    4620         F      MOV      r0,r4
        0x00003166:    bd70        p.      POP      {r4-r6,pc}
        0x00003168:    f24460ee    D..`    MOV      r0,#0x46ee
        0x0000316c:    f244617c    D.|a    MOV      r1,#0x467c
        0x00003170:    f2c00000    ....    MOVT     r0,#0
        0x00003174:    f2c00100    ....    MOVT     r1,#0
        0x00003178:    f24152a5    A..R    MOV      r2,#0x15a5
        0x0000317c:    f7fdfe98    ....    BL       __aeabi_assert ; 0xeb0
        0x00003180:    f244617c    D.|a    MOV      r1,#0x467c
        0x00003184:    a003        ..      ADR      r0,{pc}+0x10 ; 0x3194
        0x00003186:    f2c00100    ....    MOVT     r1,#0
        0x0000318a:    f24152a6    A..R    MOV      r2,#0x15a6
        0x0000318e:    f7fdfe8f    ....    BL       __aeabi_assert ; 0xeb0
        0x00003192:    bf00        ..      NOP      
    $d
        0x00003194:    69547870    pxTi    DCD    1767143536
        0x00003198:    54736b63    cksT    DCD    1416850275
        0x0000319c:    6961576f    oWai    DCD    1767987055
        0x000031a0:    00000074    t...    DCD    116
    $t
    xTaskCreateStatic
        0x000031a4:    e92d4ff0    -..O    PUSH     {r4-r11,lr}
        0x000031a8:    b081        ..      SUB      sp,sp,#4
        0x000031aa:    9d0b        ..      LDR      r5,[sp,#0x2c]
        0x000031ac:    2d00        .-      CMP      r5,#0
        0x000031ae:    f00080d7    ....    BEQ.W    0x3360 ; xTaskCreateStatic + 444
        0x000031b2:    9c0c        ..      LDR      r4,[sp,#0x30]
        0x000031b4:    2c00        .,      CMP      r4,#0
        0x000031b6:    f00080dc    ....    BEQ.W    0x3372 ; xTaskCreateStatic + 462
        0x000031ba:    4681        .F      MOV      r9,r0
        0x000031bc:    2060        `       MOVS     r0,#0x60
        0x000031be:    9000        ..      STR      r0,[sp,#0]
        0x000031c0:    9800        ..      LDR      r0,[sp,#0]
        0x000031c2:    2860        `(      CMP      r0,#0x60
        0x000031c4:    f04080de    @...    BNE.W    0x3384 ; xTaskCreateStatic + 480
        0x000031c8:    9800        ..      LDR      r0,[sp,#0]
        0x000031ca:    460e        .F      MOV      r6,r1
        0x000031cc:    9f0a        ..      LDR      r7,[sp,#0x28]
        0x000031ce:    4620         F      MOV      r0,r4
        0x000031d0:    2160        `!      MOVS     r1,#0x60
        0x000031d2:    4698        .F      MOV      r8,r3
        0x000031d4:    4692        .F      MOV      r10,r2
        0x000031d6:    f7fcff70    ..p.    BL       __aeabi_memclr ; 0xba
        0x000031da:    6325        %c      STR      r5,[r4,#0x30]
        0x000031dc:    b166        f.      CBZ      r6,0x31f8 ; xTaskCreateStatic + 84
        0x000031de:    f1040034    ..4.    ADD      r0,r4,#0x34
        0x000031e2:    2100        .!      MOVS     r1,#0
        0x000031e4:    5c72        r\      LDRB     r2,[r6,r1]
        0x000031e6:    5442        BT      STRB     r2,[r0,r1]
        0x000031e8:    b11a        ..      CBZ      r2,0x31f2 ; xTaskCreateStatic + 78
        0x000031ea:    290f        .)      CMP      r1,#0xf
        0x000031ec:    f1010101    ....    ADD      r1,r1,#1
        0x000031f0:    d1f8        ..      BNE      0x31e4 ; xTaskCreateStatic + 64
        0x000031f2:    2000        .       MOVS     r0,#0
        0x000031f4:    f8840043    ..C.    STRB     r0,[r4,#0x43]
        0x000031f8:    2f05        ./      CMP      r7,#5
        0x000031fa:    f08080cc    ....    BCS.W    0x3396 ; xTaskCreateStatic + 498
        0x000031fe:    eb05008a    ....    ADD      r0,r5,r10,LSL #2
        0x00003202:    1d25        %.      ADDS     r5,r4,#4
        0x00003204:    3804        .8      SUBS     r0,#4
        0x00003206:    f0200607     ...    BIC      r6,r0,#7
        0x0000320a:    4628        (F      MOV      r0,r5
        0x0000320c:    62e7        .b      STR      r7,[r4,#0x2c]
        0x0000320e:    f7fff9df    ....    BL       vListInitialiseItem ; 0x25d0
        0x00003212:    f1040018    ....    ADD      r0,r4,#0x18
        0x00003216:    f7fff9db    ....    BL       vListInitialiseItem ; 0x25d0
        0x0000321a:    f1c70005    ....    RSB      r0,r7,#5
        0x0000321e:    6b21        !k      LDR      r1,[r4,#0x30]
        0x00003220:    61a0        .a      STR      r0,[r4,#0x18]
        0x00003222:    4630        0F      MOV      r0,r6
        0x00003224:    464a        JF      MOV      r2,r9
        0x00003226:    4643        CF      MOV      r3,r8
        0x00003228:    6124        $a      STR      r4,[r4,#0x10]
        0x0000322a:    6264        db      STR      r4,[r4,#0x24]
        0x0000322c:    f7feff89    ....    BL       pxPortInitialiseStack ; 0x2142
        0x00003230:    6020         `      STR      r0,[r4,#0]
        0x00003232:    f7fff9ee    ....    BL       vPortEnterCritical ; 0x2612
        0x00003236:    f2407054    @.Tp    MOV      r0,#0x754
        0x0000323a:    f2c20000    ....    MOVT     r0,#0x2000
        0x0000323e:    6801        .h      LDR      r1,[r0,#0]
        0x00003240:    f2406bd8    @..k    MOVW     r11,#0x6d8
        0x00003244:    3101        .1      ADDS     r1,#1
        0x00003246:    6001        .`      STR      r1,[r0,#0]
        0x00003248:    f2c20b00    ....    MOVT     r11,#0x2000
        0x0000324c:    f8db1000    ....    LDR      r1,[r11,#0]
        0x00003250:    f6404aec    @..J    MOV      r10,#0xcec
        0x00003254:    f24067ec    @..g    MOV      r7,#0x6ec
        0x00003258:    f2c20a00    ....    MOVT     r10,#0x2000
        0x0000325c:    f2c20700    ....    MOVT     r7,#0x2000
        0x00003260:    b161        a.      CBZ      r1,0x327c ; xTaskCreateStatic + 216
        0x00003262:    f8da0000    ....    LDR      r0,[r10,#0]
        0x00003266:    2800        .(      CMP      r0,#0
        0x00003268:    d140        @.      BNE      0x32ec ; xTaskCreateStatic + 328
        0x0000326a:    f8db0000    ....    LDR      r0,[r11,#0]
        0x0000326e:    6ae1        .j      LDR      r1,[r4,#0x2c]
        0x00003270:    6ac0        .j      LDR      r0,[r0,#0x2c]
        0x00003272:    4288        .B      CMP      r0,r1
        0x00003274:    bf98        ..      IT       LS
        0x00003276:    f8cb4000    ...@    STRLS    r4,[r11,#0]
        0x0000327a:    e037        7.      B        0x32ec ; xTaskCreateStatic + 328
        0x0000327c:    f8cb4000    ...@    STR      r4,[r11,#0]
        0x00003280:    6800        .h      LDR      r0,[r0,#0]
        0x00003282:    2801        .(      CMP      r0,#1
        0x00003284:    d132        2.      BNE      0x32ec ; xTaskCreateStatic + 328
        0x00003286:    2600        .&      MOVS     r6,#0
        0x00003288:    19b8        ..      ADDS     r0,r7,r6
        0x0000328a:    f7fff996    ....    BL       vListInitialise ; 0x25ba
        0x0000328e:    3614        .6      ADDS     r6,r6,#0x14
        0x00003290:    2e64        d.      CMP      r6,#0x64
        0x00003292:    d1f9        ..      BNE      0x3288 ; xTaskCreateStatic + 228
        0x00003294:    f6404850    @.PH    MOVW     r8,#0xc50
        0x00003298:    f2c20800    ....    MOVT     r8,#0x2000
        0x0000329c:    4640        @F      MOV      r0,r8
        0x0000329e:    f7fff98c    ....    BL       vListInitialise ; 0x25ba
        0x000032a2:    f6404964    @.dI    MOV      r9,#0xc64
        0x000032a6:    f2c20900    ....    MOVT     r9,#0x2000
        0x000032aa:    4648        HF      MOV      r0,r9
        0x000032ac:    f7fff985    ....    BL       vListInitialise ; 0x25ba
        0x000032b0:    f6404088    @..@    MOV      r0,#0xc88
        0x000032b4:    f2c20000    ....    MOVT     r0,#0x2000
        0x000032b8:    f7fff97f    ....    BL       vListInitialise ; 0x25ba
        0x000032bc:    f6405004    @..P    MOV      r0,#0xd04
        0x000032c0:    f2c20000    ....    MOVT     r0,#0x2000
        0x000032c4:    f7fff979    ..y.    BL       vListInitialise ; 0x25ba
        0x000032c8:    f64040f0    @..@    MOVW     r0,#0xcf0
        0x000032cc:    f2c20000    ....    MOVT     r0,#0x2000
        0x000032d0:    f7fff973    ..s.    BL       vListInitialise ; 0x25ba
        0x000032d4:    f24060e0    @..`    MOVW     r0,#0x6e0
        0x000032d8:    f2c20000    ....    MOVT     r0,#0x2000
        0x000032dc:    f8c08000    ....    STR      r8,[r0,#0]
        0x000032e0:    f24060e4    @..`    MOV      r0,#0x6e4
        0x000032e4:    f2c20000    ....    MOVT     r0,#0x2000
        0x000032e8:    f8c09000    ....    STR      r9,[r0,#0]
        0x000032ec:    f2407060    @.`p    MOVW     r0,#0x760
        0x000032f0:    f2c20000    ....    MOVT     r0,#0x2000
        0x000032f4:    6801        .h      LDR      r1,[r0,#0]
        0x000032f6:    3101        .1      ADDS     r1,#1
        0x000032f8:    6001        .`      STR      r1,[r0,#0]
        0x000032fa:    f2407164    @.dq    MOV      r1,#0x764
        0x000032fe:    f2c20100    ....    MOVT     r1,#0x2000
        0x00003302:    6ae0        .j      LDR      r0,[r4,#0x2c]
        0x00003304:    680a        .h      LDR      r2,[r1,#0]
        0x00003306:    4290        .B      CMP      r0,r2
        0x00003308:    bf88        ..      IT       HI
        0x0000330a:    6008        .`      STRHI    r0,[r1,#0]
        0x0000330c:    eb000080    ....    ADD      r0,r0,r0,LSL #2
        0x00003310:    eb070180    ....    ADD      r1,r7,r0,LSL #2
        0x00003314:    684a        Jh      LDR      r2,[r1,#4]
        0x00003316:    6161        aa      STR      r1,[r4,#0x14]
        0x00003318:    6893        .h      LDR      r3,[r2,#8]
        0x0000331a:    e9c42302    ...#    STRD     r2,r3,[r4,#8]
        0x0000331e:    6095        .`      STR      r5,[r2,#8]
        0x00003320:    f8572020    W.      LDR      r2,[r7,r0,LSL #2]
        0x00003324:    605d        ]`      STR      r5,[r3,#4]
        0x00003326:    1c51        Q.      ADDS     r1,r2,#1
        0x00003328:    f8471020    G. .    STR      r1,[r7,r0,LSL #2]
        0x0000332c:    f7fff998    ....    BL       vPortExitCritical ; 0x2660
        0x00003330:    f8da0000    ....    LDR      r0,[r10,#0]
        0x00003334:    b180        ..      CBZ      r0,0x3358 ; xTaskCreateStatic + 436
        0x00003336:    f8db0000    ....    LDR      r0,[r11,#0]
        0x0000333a:    6ae1        .j      LDR      r1,[r4,#0x2c]
        0x0000333c:    6ac0        .j      LDR      r0,[r0,#0x2c]
        0x0000333e:    4288        .B      CMP      r0,r1
        0x00003340:    d20a        ..      BCS      0x3358 ; xTaskCreateStatic + 436
        0x00003342:    f64e5004    N..P    MOV      r0,#0xed04
        0x00003346:    f2ce0000    ....    MOVT     r0,#0xe000
        0x0000334a:    f04f5180    O..Q    MOV      r1,#0x10000000
        0x0000334e:    6001        .`      STR      r1,[r0,#0]
        0x00003350:    f3bf8f4f    ..O.    DSB      
        0x00003354:    f3bf8f6f    ..o.    ISB      
        0x00003358:    4620         F      MOV      r0,r4
        0x0000335a:    b001        ..      ADD      sp,sp,#4
        0x0000335c:    e8bd8ff0    ....    POP      {r4-r11,pc}
        0x00003360:    f244617c    D.|a    MOV      r1,#0x467c
        0x00003364:    a021        !.      ADR      r0,{pc}+0x88 ; 0x33ec
        0x00003366:    f2c00100    ....    MOVT     r1,#0
        0x0000336a:    f24042f1    @..B    MOV      r2,#0x4f1
        0x0000336e:    f7fdfd9f    ....    BL       __aeabi_assert ; 0xeb0
        0x00003372:    f244617c    D.|a    MOV      r1,#0x467c
        0x00003376:    a018        ..      ADR      r0,{pc}+0x62 ; 0x33d8
        0x00003378:    f2c00100    ....    MOVT     r1,#0
        0x0000337c:    f24042f2    @..B    MOV      r2,#0x4f2
        0x00003380:    f7fdfd96    ....    BL       __aeabi_assert ; 0xeb0
        0x00003384:    f244617c    D.|a    MOV      r1,#0x467c
        0x00003388:    a007        ..      ADR      r0,{pc}+0x20 ; 0x33a8
        0x0000338a:    f2c00100    ....    MOVT     r1,#0
        0x0000338e:    f24042fa    @..B    MOV      r2,#0x4fa
        0x00003392:    f7fdfd8d    ....    BL       __aeabi_assert ; 0xeb0
        0x00003396:    f244617c    D.|a    MOV      r1,#0x467c
        0x0000339a:    a00a        ..      ADR      r0,{pc}+0x2a ; 0x33c4
        0x0000339c:    f2c00100    ....    MOVT     r1,#0
        0x000033a0:    f2407264    @.dr    MOV      r2,#0x764
        0x000033a4:    f7fdfd84    ....    BL       __aeabi_assert ; 0xeb0
    $d
        0x000033a8:    7a695378    xSiz    DCD    2053723000
        0x000033ac:    3d3d2065    e ==    DCD    1027416165
        0x000033b0:    7a697320     siz    DCD    2053731104
        0x000033b4:    28666f65    eof(    DCD    677801829
        0x000033b8:    42435420     TCB    DCD    1111708704
        0x000033bc:    2920745f    _t )    DCD    689992799
        0x000033c0:    00000000    ....    DCD    0
        0x000033c4:    72507875    uxPr    DCD    1917876341
        0x000033c8:    69726f69    iori    DCD    1769107305
        0x000033cc:    3c207974    ty <    DCD    1008761204
        0x000033d0:    29352820     (5)    DCD    691349536
        0x000033d4:    00000000    ....    DCD    0
        0x000033d8:    61547870    pxTa    DCD    1632925808
        0x000033dc:    75426b73    skBu    DCD    1967287155
        0x000033e0:    72656666    ffer    DCD    1919247974
        0x000033e4:    203d2120     !=     DCD    540877088
        0x000033e8:    00000030    0...    DCD    48
        0x000033ec:    53787570    puxS    DCD    1400403312
        0x000033f0:    6b636174    tack    DCD    1801675124
        0x000033f4:    66667542    Buff    DCD    1717990722
        0x000033f8:    21207265    er !    DCD    555774565
        0x000033fc:    0030203d    = 0.    DCD    3153981
    $t
    xTaskGetSchedulerState
        0x00003400:    f64040ec    @..@    MOV      r0,#0xcec
        0x00003404:    f2c20000    ....    MOVT     r0,#0x2000
        0x00003408:    6800        .h      LDR      r0,[r0,#0]
        0x0000340a:    b148        H.      CBZ      r0,0x3420 ; xTaskGetSchedulerState + 32
        0x0000340c:    f240705c    @.\p    MOV      r0,#0x75c
        0x00003410:    f2c20000    ....    MOVT     r0,#0x2000
        0x00003414:    6800        .h      LDR      r0,[r0,#0]
        0x00003416:    fab0f080    ....    CLZ      r0,r0
        0x0000341a:    0940        @.      LSRS     r0,r0,#5
        0x0000341c:    0040        @.      LSLS     r0,r0,#1
        0x0000341e:    4770        pG      BX       lr
        0x00003420:    2001        .       MOVS     r0,#1
        0x00003422:    4770        pG      BX       lr
    xTaskGetTickCount
        0x00003424:    f6405018    @..P    MOV      r0,#0xd18
        0x00003428:    f2c20000    ....    MOVT     r0,#0x2000
        0x0000342c:    6800        .h      LDR      r0,[r0,#0]
        0x0000342e:    4770        pG      BX       lr
    xTaskIncrementTick
        0x00003430:    e92d4ff0    -..O    PUSH     {r4-r11,lr}
        0x00003434:    b081        ..      SUB      sp,sp,#4
        0x00003436:    f240705c    @.\p    MOV      r0,#0x75c
        0x0000343a:    f2c20000    ....    MOVT     r0,#0x2000
        0x0000343e:    6800        .h      LDR      r0,[r0,#0]
        0x00003440:    b140        @.      CBZ      r0,0x3454 ; xTaskIncrementTick + 36
        0x00003442:    f6404084    @..@    MOV      r0,#0xc84
        0x00003446:    f2c20000    ....    MOVT     r0,#0x2000
        0x0000344a:    6801        .h      LDR      r1,[r0,#0]
        0x0000344c:    3101        .1      ADDS     r1,#1
        0x0000344e:    6001        .`      STR      r1,[r0,#0]
        0x00003450:    2000        .       MOVS     r0,#0
        0x00003452:    e0a7        ..      B        0x35a4 ; xTaskIncrementTick + 372
        0x00003454:    f6405018    @..P    MOV      r0,#0xd18
        0x00003458:    f2c20000    ....    MOVT     r0,#0x2000
        0x0000345c:    6801        .h      LDR      r1,[r0,#0]
        0x0000345e:    f640427c    @.|B    MOV      r2,#0xc7c
        0x00003462:    f1110b01    ....    ADDS     r11,r1,#1
        0x00003466:    f2c20200    ....    MOVT     r2,#0x2000
        0x0000346a:    f8c0b000    ....    STR      r11,[r0,#0]
        0x0000346e:    d321        !.      BCC      0x34b4 ; xTaskIncrementTick + 132
        0x00003470:    f24060e0    @..`    MOVW     r0,#0x6e0
        0x00003474:    f2c20000    ....    MOVT     r0,#0x2000
        0x00003478:    6801        .h      LDR      r1,[r0,#0]
        0x0000347a:    6809        .h      LDR      r1,[r1,#0]
        0x0000347c:    2900        .)      CMP      r1,#0
        0x0000347e:    f0408094    @...    BNE.W    0x35aa ; xTaskIncrementTick + 378
        0x00003482:    f24063e4    @..c    MOV      r3,#0x6e4
        0x00003486:    f2c20300    ....    MOVT     r3,#0x2000
        0x0000348a:    6801        .h      LDR      r1,[r0,#0]
        0x0000348c:    681f        .h      LDR      r7,[r3,#0]
        0x0000348e:    6007        .`      STR      r7,[r0,#0]
        0x00003490:    6019        .`      STR      r1,[r3,#0]
        0x00003492:    f6404180    @..A    MOVW     r1,#0xc80
        0x00003496:    f2c20100    ....    MOVT     r1,#0x2000
        0x0000349a:    680b        .h      LDR      r3,[r1,#0]
        0x0000349c:    3301        .3      ADDS     r3,#1
        0x0000349e:    600b        .`      STR      r3,[r1,#0]
        0x000034a0:    6801        .h      LDR      r1,[r0,#0]
        0x000034a2:    6809        .h      LDR      r1,[r1,#0]
        0x000034a4:    b119        ..      CBZ      r1,0x34ae ; xTaskIncrementTick + 126
        0x000034a6:    6800        .h      LDR      r0,[r0,#0]
        0x000034a8:    68c0        .h      LDR      r0,[r0,#0xc]
        0x000034aa:    6800        .h      LDR      r0,[r0,#0]
        0x000034ac:    e001        ..      B        0x34b2 ; xTaskIncrementTick + 130
        0x000034ae:    f04f30ff    O..0    MOV      r0,#0xffffffff
        0x000034b2:    6010        .`      STR      r0,[r2,#0]
        0x000034b4:    6810        .h      LDR      r0,[r2,#0]
        0x000034b6:    4583        .E      CMP      r11,r0
        0x000034b8:    d201        ..      BCS      0x34be ; xTaskIncrementTick + 142
        0x000034ba:    2000        .       MOVS     r0,#0
        0x000034bc:    e06a        j.      B        0x3594 ; xTaskIncrementTick + 356
        0x000034be:    f2406ae0    @..j    MOVW     r10,#0x6e0
        0x000034c2:    f2c20a00    ....    MOVT     r10,#0x2000
        0x000034c6:    f8da0000    ....    LDR      r0,[r10,#0]
        0x000034ca:    6800        .h      LDR      r0,[r0,#0]
        0x000034cc:    2800        .(      CMP      r0,#0
        0x000034ce:    d05d        ].      BEQ      0x358c ; xTaskIncrementTick + 348
        0x000034d0:    f2407964    @.dy    MOV      r9,#0x764
        0x000034d4:    f2406eec    @..n    MOV      lr,#0x6ec
        0x000034d8:    f24068d8    @..h    MOVW     r8,#0x6d8
        0x000034dc:    f2c20900    ....    MOVT     r9,#0x2000
        0x000034e0:    f2c20e00    ....    MOVT     lr,#0x2000
        0x000034e4:    f2c20800    ....    MOVT     r8,#0x2000
        0x000034e8:    2000        .       MOVS     r0,#0
        0x000034ea:    bf00        ..      NOP      
        0x000034ec:    f8da1000    ....    LDR      r1,[r10,#0]
        0x000034f0:    68c9        .h      LDR      r1,[r1,#0xc]
        0x000034f2:    68ce        .h      LDR      r6,[r1,#0xc]
        0x000034f4:    4637        7F      MOV      r7,r6
        0x000034f6:    f8575f04    W.._    LDR      r5,[r7,#4]!
        0x000034fa:    45ab        .E      CMP      r11,r5
        0x000034fc:    d341        A.      BCC      0x3582 ; xTaskIncrementTick + 338
        0x000034fe:    e9d63502    ...5    LDRD     r3,r5,[r6,#8]
        0x00003502:    6971        qi      LDR      r1,[r6,#0x14]
        0x00003504:    684a        Jh      LDR      r2,[r1,#4]
        0x00003506:    609d        .`      STR      r5,[r3,#8]
        0x00003508:    42ba        .B      CMP      r2,r7
        0x0000350a:    606b        k`      STR      r3,[r5,#4]
        0x0000350c:    bf08        ..      IT       EQ
        0x0000350e:    604d        M`      STREQ    r5,[r1,#4]
        0x00003510:    680a        .h      LDR      r2,[r1,#0]
        0x00003512:    6ab5        .j      LDR      r5,[r6,#0x28]
        0x00003514:    3a01        .:      SUBS     r2,#1
        0x00003516:    600a        .`      STR      r2,[r1,#0]
        0x00003518:    b17d        }.      CBZ      r5,0x353a ; xTaskIncrementTick + 266
        0x0000351a:    e9d62107    ...!    LDRD     r2,r1,[r6,#0x1c]
        0x0000351e:    f8d5c004    ....    LDR      r12,[r5,#4]
        0x00003522:    f1060318    ....    ADD      r3,r6,#0x18
        0x00003526:    459c        .E      CMP      r12,r3
        0x00003528:    6091        .`      STR      r1,[r2,#8]
        0x0000352a:    604a        J`      STR      r2,[r1,#4]
        0x0000352c:    bf08        ..      IT       EQ
        0x0000352e:    6069        i`      STREQ    r1,[r5,#4]
        0x00003530:    6829        )h      LDR      r1,[r5,#0]
        0x00003532:    2200        ."      MOVS     r2,#0
        0x00003534:    3901        .9      SUBS     r1,#1
        0x00003536:    62b2        .b      STR      r2,[r6,#0x28]
        0x00003538:    6029        )`      STR      r1,[r5,#0]
        0x0000353a:    6af5        .j      LDR      r5,[r6,#0x2c]
        0x0000353c:    f8d91000    ....    LDR      r1,[r9,#0]
        0x00003540:    428d        .B      CMP      r5,r1
        0x00003542:    bf88        ..      IT       HI
        0x00003544:    f8c95000    ...P    STRHI    r5,[r9,#0]
        0x00003548:    eb050185    ....    ADD      r1,r5,r5,LSL #2
        0x0000354c:    eb0e0281    ....    ADD      r2,lr,r1,LSL #2
        0x00003550:    6853        Sh      LDR      r3,[r2,#4]
        0x00003552:    6172        ra      STR      r2,[r6,#0x14]
        0x00003554:    689c        .h      LDR      r4,[r3,#8]
        0x00003556:    e9c63402    ...4    STRD     r3,r4,[r6,#8]
        0x0000355a:    609f        .`      STR      r7,[r3,#8]
        0x0000355c:    f85e3021    ^.!0    LDR      r3,[lr,r1,LSL #2]
        0x00003560:    6067        g`      STR      r7,[r4,#4]
        0x00003562:    1c5a        Z.      ADDS     r2,r3,#1
        0x00003564:    f84e2021    N.!     STR      r2,[lr,r1,LSL #2]
        0x00003568:    f8d81000    ....    LDR      r1,[r8,#0]
        0x0000356c:    6ac9        .j      LDR      r1,[r1,#0x2c]
        0x0000356e:    f8da2000    ...     LDR      r2,[r10,#0]
        0x00003572:    428d        .B      CMP      r5,r1
        0x00003574:    bf88        ..      IT       HI
        0x00003576:    2001        .       MOVHI    r0,#1
        0x00003578:    6811        .h      LDR      r1,[r2,#0]
        0x0000357a:    2900        .)      CMP      r1,#0
        0x0000357c:    d1b6        ..      BNE      0x34ec ; xTaskIncrementTick + 188
        0x0000357e:    f04f35ff    O..5    MOV      r5,#0xffffffff
        0x00003582:    f640427c    @.|B    MOV      r2,#0xc7c
        0x00003586:    f2c20200    ....    MOVT     r2,#0x2000
        0x0000358a:    e002        ..      B        0x3592 ; xTaskIncrementTick + 354
        0x0000358c:    f04f35ff    O..5    MOV      r5,#0xffffffff
        0x00003590:    2000        .       MOVS     r0,#0
        0x00003592:    6015        .`      STR      r5,[r2,#0]
        0x00003594:    f6405124    @.$Q    MOV      r1,#0xd24
        0x00003598:    f2c20100    ....    MOVT     r1,#0x2000
        0x0000359c:    6809        .h      LDR      r1,[r1,#0]
        0x0000359e:    2900        .)      CMP      r1,#0
        0x000035a0:    bf18        ..      IT       NE
        0x000035a2:    2001        .       MOVNE    r0,#1
        0x000035a4:    b001        ..      ADD      sp,sp,#4
        0x000035a6:    e8bd8ff0    ....    POP      {r4-r11,pc}
        0x000035aa:    f24440fd    D..@    MOV      r0,#0x44fd
        0x000035ae:    f244617c    D.|a    MOV      r1,#0x467c
        0x000035b2:    f2c00000    ....    MOVT     r0,#0
        0x000035b6:    f2c00100    ....    MOVT     r1,#0
        0x000035ba:    f241225f    A._"    MOV      r2,#0x125f
        0x000035be:    f7fdfc77    ..w.    BL       __aeabi_assert ; 0xeb0
    xTaskRemoveFromEventList
        0x000035c2:    b5b0        ..      PUSH     {r4,r5,r7,lr}
        0x000035c4:    68c0        .h      LDR      r0,[r0,#0xc]
        0x000035c6:    68c0        .h      LDR      r0,[r0,#0xc]
        0x000035c8:    2800        .(      CMP      r0,#0
        0x000035ca:    d067        g.      BEQ      0x369c ; xTaskRemoveFromEventList + 218
        0x000035cc:    e9d01307    ....    LDRD     r1,r3,[r0,#0x1c]
        0x000035d0:    6a82        .j      LDR      r2,[r0,#0x28]
        0x000035d2:    f1000c18    ....    ADD      r12,r0,#0x18
        0x000035d6:    f8d2e004    ....    LDR      lr,[r2,#4]
        0x000035da:    608b        .`      STR      r3,[r1,#8]
        0x000035dc:    45e6        .E      CMP      lr,r12
        0x000035de:    6059        Y`      STR      r1,[r3,#4]
        0x000035e0:    bf08        ..      IT       EQ
        0x000035e2:    6053        S`      STREQ    r3,[r2,#4]
        0x000035e4:    6813        .h      LDR      r3,[r2,#0]
        0x000035e6:    2100        .!      MOVS     r1,#0
        0x000035e8:    6281        .b      STR      r1,[r0,#0x28]
        0x000035ea:    1e59        Y.      SUBS     r1,r3,#1
        0x000035ec:    6011        .`      STR      r1,[r2,#0]
        0x000035ee:    f240715c    @.\q    MOV      r1,#0x75c
        0x000035f2:    f2c20100    ....    MOVT     r1,#0x2000
        0x000035f6:    6809        .h      LDR      r1,[r1,#0]
        0x000035f8:    b189        ..      CBZ      r1,0x361e ; xTaskRemoveFromEventList + 92
        0x000035fa:    f6404188    @..A    MOV      r1,#0xc88
        0x000035fe:    f2c20100    ....    MOVT     r1,#0x2000
        0x00003602:    e9d12300    ...#    LDRD     r2,r3,[r1,#0]
        0x00003606:    6281        .b      STR      r1,[r0,#0x28]
        0x00003608:    689d        .h      LDR      r5,[r3,#8]
        0x0000360a:    e9c03507    ...5    STRD     r3,r5,[r0,#0x1c]
        0x0000360e:    f8c3c008    ....    STR      r12,[r3,#8]
        0x00003612:    1c53        S.      ADDS     r3,r2,#1
        0x00003614:    6ac2        .j      LDR      r2,[r0,#0x2c]
        0x00003616:    f8c5c004    ....    STR      r12,[r5,#4]
        0x0000361a:    600b        .`      STR      r3,[r1,#0]
        0x0000361c:    e02d        -.      B        0x367a ; xTaskRemoveFromEventList + 184
        0x0000361e:    e9d01302    ....    LDRD     r1,r3,[r0,#8]
        0x00003622:    6942        Bi      LDR      r2,[r0,#0x14]
        0x00003624:    f1000c04    ....    ADD      r12,r0,#4
        0x00003628:    f8d2e004    ....    LDR      lr,[r2,#4]
        0x0000362c:    608b        .`      STR      r3,[r1,#8]
        0x0000362e:    45e6        .E      CMP      lr,r12
        0x00003630:    6059        Y`      STR      r1,[r3,#4]
        0x00003632:    bf08        ..      IT       EQ
        0x00003634:    6053        S`      STREQ    r3,[r2,#4]
        0x00003636:    6811        .h      LDR      r1,[r2,#0]
        0x00003638:    f2407364    @.ds    MOV      r3,#0x764
        0x0000363c:    3901        .9      SUBS     r1,#1
        0x0000363e:    6011        .`      STR      r1,[r2,#0]
        0x00003640:    f2c20300    ....    MOVT     r3,#0x2000
        0x00003644:    6ac2        .j      LDR      r2,[r0,#0x2c]
        0x00003646:    6819        .h      LDR      r1,[r3,#0]
        0x00003648:    f2406eec    @..n    MOV      lr,#0x6ec
        0x0000364c:    428a        .B      CMP      r2,r1
        0x0000364e:    bf88        ..      IT       HI
        0x00003650:    601a        .`      STRHI    r2,[r3,#0]
        0x00003652:    eb020182    ....    ADD      r1,r2,r2,LSL #2
        0x00003656:    f2c20e00    ....    MOVT     lr,#0x2000
        0x0000365a:    eb0e0381    ....    ADD      r3,lr,r1,LSL #2
        0x0000365e:    685c        \h      LDR      r4,[r3,#4]
        0x00003660:    6143        Ca      STR      r3,[r0,#0x14]
        0x00003662:    68a5        .h      LDR      r5,[r4,#8]
        0x00003664:    e9c04502    ...E    STRD     r4,r5,[r0,#8]
        0x00003668:    f8c5c004    ....    STR      r12,[r5,#4]
        0x0000366c:    f85e5021    ^.!P    LDR      r5,[lr,r1,LSL #2]
        0x00003670:    f8c4c008    ....    STR      r12,[r4,#8]
        0x00003674:    1c68        h.      ADDS     r0,r5,#1
        0x00003676:    f84e0021    N.!.    STR      r0,[lr,r1,LSL #2]
        0x0000367a:    f24060d8    @..`    MOVW     r0,#0x6d8
        0x0000367e:    f2c20000    ....    MOVT     r0,#0x2000
        0x00003682:    6800        .h      LDR      r0,[r0,#0]
        0x00003684:    6ac0        .j      LDR      r0,[r0,#0x2c]
        0x00003686:    4282        .B      CMP      r2,r0
        0x00003688:    bf91        ..      ITEEE    LS
        0x0000368a:    2000        .       MOVLS    r0,#0
        0x0000368c:    f6405124    @.$Q    MOVHI    r1,#0xd24
        0x00003690:    f2c20100    ....    MOVTHI   r1,#0x2000
        0x00003694:    2001        .       MOVHI    r0,#1
        0x00003696:    bf88        ..      IT       HI
        0x00003698:    6008        .`      STRHI    r0,[r1,#0]
        0x0000369a:    bdb0        ..      POP      {r4,r5,r7,pc}
        0x0000369c:    f2446022    D."`    MOV      r0,#0x4622
        0x000036a0:    f244617c    D.|a    MOV      r1,#0x467c
        0x000036a4:    f2c00000    ....    MOVT     r0,#0
        0x000036a8:    f2c00100    ....    MOVT     r1,#0
        0x000036ac:    f24142f5    A..B    MOV      r2,#0x14f5
        0x000036b0:    f7fdfbfe    ....    BL       __aeabi_assert ; 0xeb0
    xTaskResumeAll
        0x000036b4:    e92d4ff0    -..O    PUSH     {r4-r11,lr}
        0x000036b8:    b081        ..      SUB      sp,sp,#4
        0x000036ba:    f7feffaa    ....    BL       vPortEnterCritical ; 0x2612
        0x000036be:    f240705c    @.\p    MOV      r0,#0x75c
        0x000036c2:    f2c20000    ....    MOVT     r0,#0x2000
        0x000036c6:    6801        .h      LDR      r1,[r0,#0]
        0x000036c8:    2900        .)      CMP      r1,#0
        0x000036ca:    f00080a8    ....    BEQ.W    0x381e ; xTaskResumeAll + 362
        0x000036ce:    6801        .h      LDR      r1,[r0,#0]
        0x000036d0:    3901        .9      SUBS     r1,#1
        0x000036d2:    6001        .`      STR      r1,[r0,#0]
        0x000036d4:    6800        .h      LDR      r0,[r0,#0]
        0x000036d6:    b130        0.      CBZ      r0,0x36e6 ; xTaskResumeAll + 50
        0x000036d8:    2400        .$      MOVS     r4,#0
        0x000036da:    f7feffc1    ....    BL       vPortExitCritical ; 0x2660
        0x000036de:    4620         F      MOV      r0,r4
        0x000036e0:    b001        ..      ADD      sp,sp,#4
        0x000036e2:    e8bd8ff0    ....    POP      {r4-r11,pc}
        0x000036e6:    f2407054    @.Tp    MOV      r0,#0x754
        0x000036ea:    f2c20000    ....    MOVT     r0,#0x2000
        0x000036ee:    6800        .h      LDR      r0,[r0,#0]
        0x000036f0:    2800        .(      CMP      r0,#0
        0x000036f2:    d0f1        ..      BEQ      0x36d8 ; xTaskResumeAll + 36
        0x000036f4:    f6404b88    @..K    MOV      r11,#0xc88
        0x000036f8:    f2c20b00    ....    MOVT     r11,#0x2000
        0x000036fc:    f8db1000    ....    LDR      r1,[r11,#0]
        0x00003700:    f6405924    @.$Y    MOV      r9,#0xd24
        0x00003704:    f24068d8    @..h    MOVW     r8,#0x6d8
        0x00003708:    2900        .)      CMP      r1,#0
        0x0000370a:    f2c20900    ....    MOVT     r9,#0x2000
        0x0000370e:    f2c20800    ....    MOVT     r8,#0x2000
        0x00003712:    d05f        _.      BEQ      0x37d4 ; xTaskResumeAll + 288
        0x00003714:    f2407a64    @.dz    MOV      r10,#0x764
        0x00003718:    f24063ec    @..c    MOV      r3,#0x6ec
        0x0000371c:    f04f0e00    O...    MOV      lr,#0
        0x00003720:    f2c20a00    ....    MOVT     r10,#0x2000
        0x00003724:    f2c20300    ....    MOVT     r3,#0x2000
        0x00003728:    f04f0c01    O...    MOV      r12,#1
        0x0000372c:    f8db700c    ...p    LDR      r7,[r11,#0xc]
        0x00003730:    68fc        .h      LDR      r4,[r7,#0xc]
        0x00003732:    6aa7        .j      LDR      r7,[r4,#0x28]
        0x00003734:    e9d45607    ...V    LDRD     r5,r6,[r4,#0x1c]
        0x00003738:    6879        yh      LDR      r1,[r7,#4]
        0x0000373a:    f1040218    ....    ADD      r2,r4,#0x18
        0x0000373e:    4291        .B      CMP      r1,r2
        0x00003740:    60ae        .`      STR      r6,[r5,#8]
        0x00003742:    6075        u`      STR      r5,[r6,#4]
        0x00003744:    bf08        ..      IT       EQ
        0x00003746:    607e        ~`      STREQ    r6,[r7,#4]
        0x00003748:    6839        9h      LDR      r1,[r7,#0]
        0x0000374a:    f8c4e028    ..(.    STR      lr,[r4,#0x28]
        0x0000374e:    3901        .9      SUBS     r1,#1
        0x00003750:    6039        9`      STR      r1,[r7,#0]
        0x00003752:    1d26        &.      ADDS     r6,r4,#4
        0x00003754:    6967        gi      LDR      r7,[r4,#0x14]
        0x00003756:    e9d41502    ....    LDRD     r1,r5,[r4,#8]
        0x0000375a:    687a        zh      LDR      r2,[r7,#4]
        0x0000375c:    42b2        .B      CMP      r2,r6
        0x0000375e:    608d        .`      STR      r5,[r1,#8]
        0x00003760:    6069        i`      STR      r1,[r5,#4]
        0x00003762:    bf08        ..      IT       EQ
        0x00003764:    607d        }`      STREQ    r5,[r7,#4]
        0x00003766:    6839        9h      LDR      r1,[r7,#0]
        0x00003768:    3901        .9      SUBS     r1,#1
        0x0000376a:    6039        9`      STR      r1,[r7,#0]
        0x0000376c:    6ae7        .j      LDR      r7,[r4,#0x2c]
        0x0000376e:    f8da1000    ....    LDR      r1,[r10,#0]
        0x00003772:    428f        .B      CMP      r7,r1
        0x00003774:    bf88        ..      IT       HI
        0x00003776:    f8ca7000    ...p    STRHI    r7,[r10,#0]
        0x0000377a:    eb070187    ....    ADD      r1,r7,r7,LSL #2
        0x0000377e:    eb030281    ....    ADD      r2,r3,r1,LSL #2
        0x00003782:    6855        Uh      LDR      r5,[r2,#4]
        0x00003784:    6162        ba      STR      r2,[r4,#0x14]
        0x00003786:    68a8        .h      LDR      r0,[r5,#8]
        0x00003788:    e9c45002    ...P    STRD     r5,r0,[r4,#8]
        0x0000378c:    6046        F`      STR      r6,[r0,#4]
        0x0000378e:    f8530021    S.!.    LDR      r0,[r3,r1,LSL #2]
        0x00003792:    60ae        .`      STR      r6,[r5,#8]
        0x00003794:    3001        .0      ADDS     r0,#1
        0x00003796:    f8430021    C.!.    STR      r0,[r3,r1,LSL #2]
        0x0000379a:    f8d80000    ....    LDR      r0,[r8,#0]
        0x0000379e:    6ac0        .j      LDR      r0,[r0,#0x2c]
        0x000037a0:    4287        .B      CMP      r7,r0
        0x000037a2:    bf88        ..      IT       HI
        0x000037a4:    f8c9c000    ....    STRHI    r12,[r9,#0]
        0x000037a8:    f8db0000    ....    LDR      r0,[r11,#0]
        0x000037ac:    2800        .(      CMP      r0,#0
        0x000037ae:    d1bd        ..      BNE      0x372c ; xTaskResumeAll + 120
        0x000037b0:    f24060e0    @..`    MOVW     r0,#0x6e0
        0x000037b4:    f2c20000    ....    MOVT     r0,#0x2000
        0x000037b8:    6801        .h      LDR      r1,[r0,#0]
        0x000037ba:    6809        .h      LDR      r1,[r1,#0]
        0x000037bc:    b119        ..      CBZ      r1,0x37c6 ; xTaskResumeAll + 274
        0x000037be:    6800        .h      LDR      r0,[r0,#0]
        0x000037c0:    68c0        .h      LDR      r0,[r0,#0xc]
        0x000037c2:    6800        .h      LDR      r0,[r0,#0]
        0x000037c4:    e001        ..      B        0x37ca ; xTaskResumeAll + 278
        0x000037c6:    f04f30ff    O..0    MOV      r0,#0xffffffff
        0x000037ca:    f640417c    @.|A    MOV      r1,#0xc7c
        0x000037ce:    f2c20100    ....    MOVT     r1,#0x2000
        0x000037d2:    6008        .`      STR      r0,[r1,#0]
        0x000037d4:    f6404484    @..D    MOV      r4,#0xc84
        0x000037d8:    f2c20400    ....    MOVT     r4,#0x2000
        0x000037dc:    6826        &h      LDR      r6,[r4,#0]
        0x000037de:    b156        V.      CBZ      r6,0x37f6 ; xTaskResumeAll + 322
        0x000037e0:    2701        .'      MOVS     r7,#1
        0x000037e2:    bf00        ..      NOP      
        0x000037e4:    f7fffe24    ..$.    BL       xTaskIncrementTick ; 0x3430
        0x000037e8:    b108        ..      CBZ      r0,0x37ee ; xTaskResumeAll + 314
        0x000037ea:    f8c97000    ...p    STR      r7,[r9,#0]
        0x000037ee:    3e01        .>      SUBS     r6,#1
        0x000037f0:    d1f8        ..      BNE      0x37e4 ; xTaskResumeAll + 304
        0x000037f2:    2000        .       MOVS     r0,#0
        0x000037f4:    6020         `      STR      r0,[r4,#0]
        0x000037f6:    f8d90000    ....    LDR      r0,[r9,#0]
        0x000037fa:    2800        .(      CMP      r0,#0
        0x000037fc:    f43faf6c    ?.l.    BEQ      0x36d8 ; xTaskResumeAll + 36
        0x00003800:    f8d80000    ....    LDR      r0,[r8,#0]
        0x00003804:    f64e5004    N..P    MOV      r0,#0xed04
        0x00003808:    f2ce0000    ....    MOVT     r0,#0xe000
        0x0000380c:    f04f5180    O..Q    MOV      r1,#0x10000000
        0x00003810:    6001        .`      STR      r1,[r0,#0]
        0x00003812:    f3bf8f4f    ..O.    DSB      
        0x00003816:    f3bf8f6f    ..o.    ISB      
        0x0000381a:    2401        .$      MOVS     r4,#1
        0x0000381c:    e75d        ].      B        0x36da ; xTaskResumeAll + 38
        0x0000381e:    f244617c    D.|a    MOV      r1,#0x467c
        0x00003822:    a003        ..      ADR      r0,{pc}+0xe ; 0x3830
        0x00003824:    f2c00100    ....    MOVT     r1,#0
        0x00003828:    f640728b    @..r    MOV      r2,#0xf8b
        0x0000382c:    f7fdfb40    ..@.    BL       __aeabi_assert ; 0xeb0
    $d
        0x00003830:    63537875    uxSc    DCD    1666414709
        0x00003834:    75646568    hedu    DCD    1969513832
        0x00003838:    5372656c    lerS    DCD    1400005996
        0x0000383c:    65707375    uspe    DCD    1701868405
        0x00003840:    6465646e    nded    DCD    1684366446
        0x00003844:    203d2120     !=     DCD    540877088
        0x00003848:    00005530    0U..    DCD    21808
    $t
    xTimerCreateTimerTask
        0x0000384c:    b580        ..      PUSH     {r7,lr}
        0x0000384e:    b086        ..      SUB      sp,sp,#0x18
        0x00003850:    f7fefa40    ..@.    BL       prvCheckForValidListAndQueue ; 0x1cd4
        0x00003854:    f640501c    @..P    MOV      r0,#0xd1c
        0x00003858:    f2c20000    ....    MOVT     r0,#0x2000
        0x0000385c:    6800        .h      LDR      r0,[r0,#0]
        0x0000385e:    b308        ..      CBZ      r0,0x38a4 ; xTimerCreateTimerTask + 88
        0x00003860:    2000        .       MOVS     r0,#0
        0x00003862:    e9cd0004    ....    STRD     r0,r0,[sp,#0x10]
        0x00003866:    a805        ..      ADD      r0,sp,#0x14
        0x00003868:    a904        ..      ADD      r1,sp,#0x10
        0x0000386a:    aa03        ..      ADD      r2,sp,#0xc
        0x0000386c:    f7fefe8c    ....    BL       vApplicationGetTimerTaskMemory ; 0x2588
        0x00003870:    e9dd2003    ...     LDRD     r2,r0,[sp,#0xc]
        0x00003874:    2103        .!      MOVS     r1,#3
        0x00003876:    f8ddc014    ....    LDR      r12,[sp,#0x14]
        0x0000387a:    2300        .#      MOVS     r3,#0
        0x0000387c:    e9cd1000    ....    STRD     r1,r0,[sp,#0]
        0x00003880:    f6417039    A.9p    MOV      r0,#0x1f39
        0x00003884:    f2c00000    ....    MOVT     r0,#0
        0x00003888:    a10b        ..      ADR      r1,{pc}+0x30 ; 0x38b8
        0x0000388a:    f8cdc008    ....    STR      r12,[sp,#8]
        0x0000388e:    f7fffc89    ....    BL       xTaskCreateStatic ; 0x31a4
        0x00003892:    f6405120    @. Q    MOVW     r1,#0xd20
        0x00003896:    f2c20100    ....    MOVT     r1,#0x2000
        0x0000389a:    6008        .`      STR      r0,[r1,#0]
        0x0000389c:    b110        ..      CBZ      r0,0x38a4 ; xTimerCreateTimerTask + 88
        0x0000389e:    2001        .       MOVS     r0,#1
        0x000038a0:    b006        ..      ADD      sp,sp,#0x18
        0x000038a2:    bd80        ..      POP      {r7,pc}
        0x000038a4:    f2447106    D..q    MOV      r1,#0x4706
        0x000038a8:    a005        ..      ADR      r0,{pc}+0x18 ; 0x38c0
        0x000038aa:    f2c00100    ....    MOVT     r1,#0
        0x000038ae:    f44f72a3    O..r    MOV      r2,#0x146
        0x000038b2:    f7fdfafd    ....    BL       __aeabi_assert ; 0xeb0
        0x000038b6:    bf00        ..      NOP      
    $d
        0x000038b8:    20726d54    Tmr     DCD    544370004
        0x000038bc:    00637653    Svc.    DCD    6518355
        0x000038c0:    74655278    xRet    DCD    1952797304
        0x000038c4:    006e7275    urn.    DCD    7238261
    $d.realdata
    OLED_F8x16
        0x000038c8:    00000000    ....    DCD    0
        0x000038cc:    00000000    ....    DCD    0
        0x000038d0:    00000000    ....    DCD    0
        0x000038d4:    00000000    ....    DCD    0
        0x000038d8:    f8000000    ....    DCD    4160749568
        0x000038dc:    00000000    ....    DCD    0
        0x000038e0:    33000000    ...3    DCD    855638016
        0x000038e4:    00000030    0...    DCD    48
        0x000038e8:    060c1000    ....    DCD    101453824
        0x000038ec:    00060c10    ....    DCD    396304
        0x000038f0:    00000000    ....    DCD    0
        0x000038f4:    00000000    ....    DCD    0
        0x000038f8:    4078c040    @.x@    DCD    1081655360
        0x000038fc:    004078c0    .x@.    DCD    4225216
        0x00003900:    04043f04    .?..    DCD    67387140
        0x00003904:    0004043f    ?...    DCD    263231
        0x00003908:    fc887000    .p..    DCD    4236800000
        0x0000390c:    00003008    .0..    DCD    12296
        0x00003910:    ff201800    .. .    DCD    4280293376
        0x00003914:    00001e21    !...    DCD    7713
        0x00003918:    00f008f0    ....    DCD    15730928
        0x0000391c:    000018e0    ....    DCD    6368
        0x00003920:    031c2100    .!..    DCD    52175104
        0x00003924:    001e211e    .!..    DCD    1974558
        0x00003928:    8808f000    ....    DCD    2282287104
        0x0000392c:    00000070    p...    DCD    112
        0x00003930:    2423211e    .!#$    DCD    606282014
        0x00003934:    10212719    .'!.    DCD    270608153
        0x00003938:    000e1610    ....    DCD    923152
        0x0000393c:    00000000    ....    DCD    0
        0x00003940:    00000000    ....    DCD    0
        0x00003944:    00000000    ....    DCD    0
        0x00003948:    e0000000    ....    DCD    3758096384
        0x0000394c:    00020418    ....    DCD    132120
        0x00003950:    07000000    ....    DCD    117440512
        0x00003954:    00402018    . @.    DCD    4202520
        0x00003958:    18040200    ....    DCD    402915840
        0x0000395c:    000000e0    ....    DCD    224
        0x00003960:    18204000    .@ .    DCD    404766720
        0x00003964:    00000007    ....    DCD    7
        0x00003968:    f0804040    @@..    DCD    4034936896
        0x0000396c:    00404080    .@@.    DCD    4210816
        0x00003970:    0f010202    ....    DCD    251724290
        0x00003974:    00020201    ....    DCD    131585
        0x00003978:    f0000000    ....    DCD    4026531840
        0x0000397c:    00000000    ....    DCD    0
        0x00003980:    1f010101    ....    DCD    520159489
        0x00003984:    00010101    ....    DCD    65793
        0x00003988:    00000000    ....    DCD    0
        0x0000398c:    00000000    ....    DCD    0
        0x00003990:    0070b080    ..p.    DCD    7385216
        0x00003994:    00000000    ....    DCD    0
        0x00003998:    00000000    ....    DCD    0
        0x0000399c:    00000000    ....    DCD    0
        0x000039a0:    01010100    ....    DCD    16843008
        0x000039a4:    01010101    ....    DCD    16843009
        0x000039a8:    00000000    ....    DCD    0
        0x000039ac:    00000000    ....    DCD    0
        0x000039b0:    00303000    .00.    DCD    3158016
        0x000039b4:    00000000    ....    DCD    0
        0x000039b8:    00000000    ....    DCD    0
        0x000039bc:    04186080    .`..    DCD    68706432
        0x000039c0:    06186000    .`..    DCD    102260736
        0x000039c4:    00000001    ....    DCD    1
        0x000039c8:    0810e000    ....    DCD    135323648
        0x000039cc:    00e01008    ....    DCD    14684168
        0x000039d0:    20100f00    ...     DCD    537923328
        0x000039d4:    000f1020     ...    DCD    987168
        0x000039d8:    f8101000    ....    DCD    4161802240
        0x000039dc:    00000000    ....    DCD    0
        0x000039e0:    3f202000    .  ?    DCD    1059069952
        0x000039e4:    00002020      ..    DCD    8224
        0x000039e8:    08087000    .p..    DCD    134770688
        0x000039ec:    00708808    ..p.    DCD    7374856
        0x000039f0:    24283000    .0($    DCD    606613504
        0x000039f4:    00302122    "!0.    DCD    3154210
        0x000039f8:    88083000    .0..    DCD    2282237952
        0x000039fc:    00304888    .H0.    DCD    3164296
        0x00003a00:    20201800    ..      DCD    538974208
        0x00003a04:    000e1120     ...    DCD    921888
        0x00003a08:    20c00000    ...     DCD    549453824
        0x00003a0c:    0000f810    ....    DCD    63504
        0x00003a10:    24040700    ...$    DCD    604243712
        0x00003a14:    00243f24    $?$.    DCD    2375460
        0x00003a18:    8808f800    ....    DCD    2282289152
        0x00003a1c:    00080888    ....    DCD    526472
        0x00003a20:    20211900    ..!     DCD    539040000
        0x00003a24:    000e1120     ...    DCD    921888
        0x00003a28:    8810e000    ....    DCD    2282807296
        0x00003a2c:    00001888    ....    DCD    6280
        0x00003a30:    20110f00    ...     DCD    537988864
        0x00003a34:    000e1120     ...    DCD    921888
        0x00003a38:    08083800    .8..    DCD    134756352
        0x00003a3c:    000838c8    .8..    DCD    538824
        0x00003a40:    3f000000    ...?    DCD    1056964608
        0x00003a44:    00000000    ....    DCD    0
        0x00003a48:    08887000    .p..    DCD    143159296
        0x00003a4c:    00708808    ..p.    DCD    7374856
        0x00003a50:    21221c00    .."!    DCD    555883520
        0x00003a54:    001c2221    !"..    DCD    1843745
        0x00003a58:    0810e000    ....    DCD    135323648
        0x00003a5c:    00e01008    ....    DCD    14684168
        0x00003a60:    22310000    ..1"    DCD    573636608
        0x00003a64:    000f1122    "...    DCD    987426
        0x00003a68:    c0000000    ....    DCD    3221225472
        0x00003a6c:    000000c0    ....    DCD    192
        0x00003a70:    30000000    ...0    DCD    805306368
        0x00003a74:    00000030    0...    DCD    48
        0x00003a78:    80000000    ....    DCD    2147483648
        0x00003a7c:    00000000    ....    DCD    0
        0x00003a80:    60800000    ...`    DCD    1619001344
        0x00003a84:    00000000    ....    DCD    0
        0x00003a88:    40800000    ...@    DCD    1082130432
        0x00003a8c:    00081020     ...    DCD    528416
        0x00003a90:    04020100    ....    DCD    67240192
        0x00003a94:    00201008    .. .    DCD    2101256
        0x00003a98:    40404040    @@@@    DCD    1077952576
        0x00003a9c:    00404040    @@@.    DCD    4210752
        0x00003aa0:    04040404    ....    DCD    67372036
        0x00003aa4:    00040404    ....    DCD    263172
        0x00003aa8:    20100800    ...     DCD    537921536
        0x00003aac:    00008040    @...    DCD    32832
        0x00003ab0:    08102000    . ..    DCD    135274496
        0x00003ab4:    00010204    ....    DCD    66052
        0x00003ab8:    08487000    .pH.    DCD    138964992
        0x00003abc:    00f00808    ....    DCD    15730696
        0x00003ac0:    30000000    ...0    DCD    805306368
        0x00003ac4:    00000136    6...    DCD    310
        0x00003ac8:    28c830c0    .0.(    DCD    684208320
        0x00003acc:    00e010e8    ....    DCD    14684392
        0x00003ad0:    24271807    ..'$    DCD    606541831
        0x00003ad4:    000b1423    #...    DCD    726051
        0x00003ad8:    38c00000    ...8    DCD    952107008
        0x00003adc:    000000e0    ....    DCD    224
        0x00003ae0:    02233c20     <#.    DCD    35863584
        0x00003ae4:    20382702    .'8     DCD    540550914
        0x00003ae8:    8888f808    ....    DCD    2290677768
        0x00003aec:    00007088    .p..    DCD    28808
        0x00003af0:    20203f20     ?      DCD    538984224
        0x00003af4:    000e1120     ...    DCD    921888
        0x00003af8:    080830c0    .0..    DCD    134754496
        0x00003afc:    00380808    ..8.    DCD    3672072
        0x00003b00:    20201807    ..      DCD    538974215
        0x00003b04:    00081020     ...    DCD    528416
        0x00003b08:    0808f808    ....    DCD    134805512
        0x00003b0c:    00e01008    ....    DCD    14684168
        0x00003b10:    20203f20     ?      DCD    538984224
        0x00003b14:    000f1020     ...    DCD    987168
        0x00003b18:    8888f808    ....    DCD    2290677768
        0x00003b1c:    001008e8    ....    DCD    1050856
        0x00003b20:    20203f20     ?      DCD    538984224
        0x00003b24:    00182023    # ..    DCD    1581091
        0x00003b28:    8888f808    ....    DCD    2290677768
        0x00003b2c:    001008e8    ....    DCD    1050856
        0x00003b30:    00203f20     ? .    DCD    2113312
        0x00003b34:    00000003    ....    DCD    3
        0x00003b38:    080830c0    .0..    DCD    134754496
        0x00003b3c:    00003808    .8..    DCD    14344
        0x00003b40:    20201807    ..      DCD    538974215
        0x00003b44:    00021e22    "...    DCD    138786
        0x00003b48:    0008f808    ....    DCD    587784
        0x00003b4c:    08f80800    ....    DCD    150472704
        0x00003b50:    01213f20     ?!.    DCD    18956064
        0x00003b54:    203f2101    .!?     DCD    541008129
        0x00003b58:    f8080800    ....    DCD    4161275904
        0x00003b5c:    00000808    ....    DCD    2056
        0x00003b60:    3f202000    .  ?    DCD    1059069952
        0x00003b64:    00002020      ..    DCD    8224
        0x00003b68:    08080000    ....    DCD    134742016
        0x00003b6c:    000808f8    ....    DCD    526584
        0x00003b70:    808080c0    ....    DCD    2155905216
        0x00003b74:    0000007f    ....    DCD    127
        0x00003b78:    c088f808    ....    DCD    3230201864
        0x00003b7c:    00081828    (...    DCD    530472
        0x00003b80:    01203f20     ? .    DCD    18890528
        0x00003b84:    00203826    &8 .    DCD    2111526
        0x00003b88:    0008f808    ....    DCD    587784
        0x00003b8c:    00000000    ....    DCD    0
        0x00003b90:    20203f20     ?      DCD    538984224
        0x00003b94:    00302020      0.    DCD    3153952
        0x00003b98:    00f8f808    ....    DCD    16316424
        0x00003b9c:    0008f8f8    ....    DCD    588024
        0x00003ba0:    3f003f20     ?.?    DCD    1056980768
        0x00003ba4:    00203f00    .? .    DCD    2113280
        0x00003ba8:    c030f808    ..0.    DCD    3224434696
        0x00003bac:    08f80800    ....    DCD    150472704
        0x00003bb0:    00203f20     ? .    DCD    2113312
        0x00003bb4:    003f1807    ..?.    DCD    4134919
        0x00003bb8:    080810e0    ....    DCD    134746336
        0x00003bbc:    00e01008    ....    DCD    14684168
        0x00003bc0:    2020100f    ..      DCD    538972175
        0x00003bc4:    000f1020     ...    DCD    987168
        0x00003bc8:    0808f808    ....    DCD    134805512
        0x00003bcc:    00f00808    ....    DCD    15730696
        0x00003bd0:    01213f20     ?!.    DCD    18956064
        0x00003bd4:    00000101    ....    DCD    257
        0x00003bd8:    080810e0    ....    DCD    134746336
        0x00003bdc:    00e01008    ....    DCD    14684168
        0x00003be0:    2424180f    ..$$    DCD    606345231
        0x00003be4:    004f5038    8PO.    DCD    5197880
        0x00003be8:    8888f808    ....    DCD    2290677768
        0x00003bec:    00708888    ..p.    DCD    7374984
        0x00003bf0:    00203f20     ? .    DCD    2113312
        0x00003bf4:    20300c03    ..0     DCD    540019715
        0x00003bf8:    08887000    .p..    DCD    143159296
        0x00003bfc:    00380808    ..8.    DCD    3672072
        0x00003c00:    21203800    .8 !    DCD    555759616
        0x00003c04:    001c2221    !"..    DCD    1843745
        0x00003c08:    f8080818    ....    DCD    4161275928
        0x00003c0c:    00180808    ....    DCD    1574920
        0x00003c10:    3f200000    .. ?    DCD    1059061760
        0x00003c14:    00000020     ...    DCD    32
        0x00003c18:    0008f808    ....    DCD    587784
        0x00003c1c:    08f80800    ....    DCD    150472704
        0x00003c20:    20201f00    ..      DCD    538976000
        0x00003c24:    001f2020      ..    DCD    2039840
        0x00003c28:    00887808    .x..    DCD    8943624
        0x00003c2c:    0838c800    ..8.    DCD    137938944
        0x00003c30:    38070000    ...8    DCD    939982848
        0x00003c34:    0000010e    ....    DCD    270
        0x00003c38:    f80008f8    ....    DCD    4160751864
        0x00003c3c:    00f80800    ....    DCD    16254976
        0x00003c40:    00073c03    .<..    DCD    474115
        0x00003c44:    00033c07    .<..    DCD    211975
        0x00003c48:    80681808    ..h.    DCD    2154305544
        0x00003c4c:    08186880    .h..    DCD    135817344
        0x00003c50:    032c3020     0,.    DCD    53227552
        0x00003c54:    20302c03    .,0     DCD    540027907
        0x00003c58:    00c83808    .8..    DCD    13121544
        0x00003c5c:    000838c8    .8..    DCD    538824
        0x00003c60:    3f200000    .. ?    DCD    1059061760
        0x00003c64:    00000020     ...    DCD    32
        0x00003c68:    08080810    ....    DCD    134744080
        0x00003c6c:    000838c8    .8..    DCD    538824
        0x00003c70:    21263820     8&!    DCD    556152864
        0x00003c74:    00182020      ..    DCD    1581088
        0x00003c78:    fe000000    ....    DCD    4261412864
        0x00003c7c:    00020202    ....    DCD    131586
        0x00003c80:    7f000000    ....    DCD    2130706432
        0x00003c84:    00404040    @@@.    DCD    4210752
        0x00003c88:    c0300c00    ..0.    DCD    3224374272
        0x00003c8c:    00000000    ....    DCD    0
        0x00003c90:    01000000    ....    DCD    16777216
        0x00003c94:    00c03806    .8..    DCD    12597254
        0x00003c98:    02020200    ....    DCD    33686016
        0x00003c9c:    000000fe    ....    DCD    254
        0x00003ca0:    40404000    .@@@    DCD    1077952512
        0x00003ca4:    0000007f    ....    DCD    127
        0x00003ca8:    02040000    ....    DCD    33816576
        0x00003cac:    00040202    ....    DCD    262658
        0x00003cb0:    00000000    ....    DCD    0
        0x00003cb4:    00000000    ....    DCD    0
        0x00003cb8:    00000000    ....    DCD    0
        0x00003cbc:    00000000    ....    DCD    0
        0x00003cc0:    80808080    ....    DCD    2155905152
        0x00003cc4:    80808080    ....    DCD    2155905152
        0x00003cc8:    04020200    ....    DCD    67240448
        0x00003ccc:    00000000    ....    DCD    0
        0x00003cd0:    00000000    ....    DCD    0
        0x00003cd4:    00000000    ....    DCD    0
        0x00003cd8:    80800000    ....    DCD    2155872256
        0x00003cdc:    00008080    ....    DCD    32896
        0x00003ce0:    22241900    ..$"    DCD    572791040
        0x00003ce4:    203f2222    ""?     DCD    541008418
        0x00003ce8:    8000f808    ....    DCD    2147547144
        0x00003cec:    00000080    ....    DCD    128
        0x00003cf0:    20113f00    .?.     DCD    538001152
        0x00003cf4:    000e1120     ...    DCD    921888
        0x00003cf8:    80000000    ....    DCD    2147483648
        0x00003cfc:    00008080    ....    DCD    32896
        0x00003d00:    20110e00    ...     DCD    537988608
        0x00003d04:    00112020      ..    DCD    1122336
        0x00003d08:    80000000    ....    DCD    2147483648
        0x00003d0c:    00f88880    ....    DCD    16287872
        0x00003d10:    20110e00    ...     DCD    537988608
        0x00003d14:    203f1020     .?     DCD    541003808
        0x00003d18:    80800000    ....    DCD    2155872256
        0x00003d1c:    00008080    ....    DCD    32896
        0x00003d20:    22221f00    ..""    DCD    572661504
        0x00003d24:    00132222    ""..    DCD    1253922
        0x00003d28:    f0808000    ....    DCD    4034953216
        0x00003d2c:    18888888    ....    DCD    411601032
        0x00003d30:    3f202000    .  ?    DCD    1059069952
        0x00003d34:    00002020      ..    DCD    8224
        0x00003d38:    80800000    ....    DCD    2155872256
        0x00003d3c:    00808080    ....    DCD    8421504
        0x00003d40:    94946b00    .k..    DCD    2492754688
        0x00003d44:    00609394    ..`.    DCD    6329236
        0x00003d48:    8000f808    ....    DCD    2147547144
        0x00003d4c:    00008080    ....    DCD    32896
        0x00003d50:    00213f20     ?!.    DCD    2178848
        0x00003d54:    203f2000    . ?     DCD    541007872
        0x00003d58:    98988000    ....    DCD    2560131072
        0x00003d5c:    00000000    ....    DCD    0
        0x00003d60:    3f202000    .  ?    DCD    1059069952
        0x00003d64:    00002020      ..    DCD    8224
        0x00003d68:    80000000    ....    DCD    2147483648
        0x00003d6c:    00009898    ....    DCD    39064
        0x00003d70:    8080c000    ....    DCD    2155921408
        0x00003d74:    00007f80    ....    DCD    32640
        0x00003d78:    0000f808    ....    DCD    63496
        0x00003d7c:    00808080    ....    DCD    8421504
        0x00003d80:    02243f20     ?$.    DCD    35929888
        0x00003d84:    0020302d    -0 .    DCD    2109485
        0x00003d88:    f8080800    ....    DCD    4161275904
        0x00003d8c:    00000000    ....    DCD    0
        0x00003d90:    3f202000    .  ?    DCD    1059069952
        0x00003d94:    00002020      ..    DCD    8224
        0x00003d98:    80808080    ....    DCD    2155905152
        0x00003d9c:    00808080    ....    DCD    8421504
        0x00003da0:    00203f20     ? .    DCD    2113312
        0x00003da4:    3f00203f    ? .?    DCD    1056972863
        0x00003da8:    80008080    ....    DCD    2147516544
        0x00003dac:    00008080    ....    DCD    32896
        0x00003db0:    00213f20     ?!.    DCD    2178848
        0x00003db4:    203f2000    . ?     DCD    541007872
        0x00003db8:    80800000    ....    DCD    2155872256
        0x00003dbc:    00008080    ....    DCD    32896
        0x00003dc0:    20201f00    ..      DCD    538976000
        0x00003dc4:    001f2020      ..    DCD    2039840
        0x00003dc8:    80008080    ....    DCD    2147516544
        0x00003dcc:    00000080    ....    DCD    128
        0x00003dd0:    20a1ff80    ...     DCD    547487616
        0x00003dd4:    000e1120     ...    DCD    921888
        0x00003dd8:    80000000    ....    DCD    2147483648
        0x00003ddc:    00808080    ....    DCD    8421504
        0x00003de0:    20110e00    ...     DCD    537988608
        0x00003de4:    80ffa020     ...    DCD    2164236320
        0x00003de8:    00808080    ....    DCD    8421504
        0x00003dec:    00808080    ....    DCD    8421504
        0x00003df0:    213f2020      ?!    DCD    557785120
        0x00003df4:    00010020     ...    DCD    65568
        0x00003df8:    80800000    ....    DCD    2155872256
        0x00003dfc:    00808080    ....    DCD    8421504
        0x00003e00:    24243300    .3$$    DCD    606352128
        0x00003e04:    00192424    $$..    DCD    1647652
        0x00003e08:    e0808000    ....    DCD    3766517760
        0x00003e0c:    00008080    ....    DCD    32896
        0x00003e10:    1f000000    ....    DCD    520093696
        0x00003e14:    00002020      ..    DCD    8224
        0x00003e18:    00008080    ....    DCD    32896
        0x00003e1c:    00808000    ....    DCD    8421376
        0x00003e20:    20201f00    ..      DCD    538976000
        0x00003e24:    203f1020     .?     DCD    541003808
        0x00003e28:    00808080    ....    DCD    8421504
        0x00003e2c:    80808000    ....    DCD    2155905024
        0x00003e30:    300e0100    ...0    DCD    806224128
        0x00003e34:    00010608    ....    DCD    67080
        0x00003e38:    80008080    ....    DCD    2147516544
        0x00003e3c:    80808000    ....    DCD    2155905024
        0x00003e40:    030c300f    .0..    DCD    51130383
        0x00003e44:    000f300c    .0..    DCD    995340
        0x00003e48:    00808000    ....    DCD    8421376
        0x00003e4c:    00808080    ....    DCD    8421504
        0x00003e50:    2e312000    . 1.    DCD    774971392
        0x00003e54:    0020310e    .1 .    DCD    2109710
        0x00003e58:    00808080    ....    DCD    8421504
        0x00003e5c:    80808000    ....    DCD    2155905024
        0x00003e60:    708e8180    ...p    DCD    1888387456
        0x00003e64:    00010618    ....    DCD    67096
        0x00003e68:    80808000    ....    DCD    2155905024
        0x00003e6c:    00808080    ....    DCD    8421504
        0x00003e70:    2c302100    .!0,    DCD    741351680
        0x00003e74:    00302122    "!0.    DCD    3154210
        0x00003e78:    00000000    ....    DCD    0
        0x00003e7c:    02027c80    .|..    DCD    33717376
        0x00003e80:    00000000    ....    DCD    0
        0x00003e84:    40403f00    .?@@    DCD    1077952256
        0x00003e88:    00000000    ....    DCD    0
        0x00003e8c:    000000ff    ....    DCD    255
        0x00003e90:    00000000    ....    DCD    0
        0x00003e94:    000000ff    ....    DCD    255
        0x00003e98:    7c020200    ...|    DCD    2080506368
        0x00003e9c:    00000080    ....    DCD    128
        0x00003ea0:    3f404000    .@@?    DCD    1061175296
        0x00003ea4:    00000000    ....    DCD    0
        0x00003ea8:    01010600    ....    DCD    16844288
        0x00003eac:    04040202    ....    DCD    67371522
        0x00003eb0:    00000000    ....    DCD    0
        0x00003eb4:    00000000    ....    DCD    0
    copy_list
        0x00003eb8:    68000000    ...h    DCD    1744830464
        0x00003ebc:    68000000    ...h    DCD    1744830464
        0x00003ec0:    60000000    ...`    DCD    1610612736
        0x00003ec4:    080c0100    ....    DCD    135004416
        0x00003ec8:    68000000    ...h    DCD    1744830464
        0x00003ecc:    68000000    ...h    DCD    1744830464
        0x00003ed0:    70000000    ...p    DCD    1879048192
        0x00003ed4:    08090100    ....    DCD    134807808
        0x00003ed8:    68000000    ...h    DCD    1744830464
        0x00003edc:    68000000    ...h    DCD    1744830464
        0x00003ee0:    08000000    ....    DCD    134217728
        0x00003ee4:    08020100    ....    DCD    134349056
        0x00003ee8:    68000000    ...h    DCD    1744830464
        0x00003eec:    68000000    ...h    DCD    1744830464
        0x00003ef0:    00000084    ....    DCD    132
        0x00003ef4:    08010100    ....    DCD    134283520
        0x00003ef8:    20000000    ...     DCD    536870912
        0x00003efc:    20000000    ...     DCD    536870912
        0x00003f00:    60000000    ...`    DCD    1610612736
        0x00003f04:    030c0100    ....    DCD    51118336
        0x00003f08:    20000000    ...     DCD    536870912
        0x00003f0c:    20000000    ...     DCD    536870912
        0x00003f10:    70000000    ...p    DCD    1879048192
        0x00003f14:    03090100    ....    DCD    50921728
        0x00003f18:    20000000    ...     DCD    536870912
        0x00003f1c:    20000000    ...     DCD    536870912
        0x00003f20:    08000000    ....    DCD    134217728
        0x00003f24:    03020000    ....    DCD    50462720
        0x00003f28:    20000000    ...     DCD    536870912
        0x00003f2c:    20000004    ...     DCD    536870916
        0x00003f30:    00000084    ....    DCD    132
        0x00003f34:    03010000    ....    DCD    50397184
    g_bsp_pin_cfg
        0x00003f38:    00000021    !...    DCD    33
        0x00003f3c:    00003f44    D?..    DCD    16196
        0x00003f40:    00000000    ....    DCD    0
    g_bsp_pin_cfg_data
        0x00003f44:    00000004    ....    DCD    4
        0x00003f48:    00000005    ....    DCD    5
        0x00003f4c:    00010000    ....    DCD    65536
        0x00003f50:    00000108    ....    DCD    264
        0x00003f54:    03010010    ....    DCD    50397200
        0x00003f58:    00000109    ....    DCD    265
        0x00003f5c:    03010010    ....    DCD    50397200
        0x00003f60:    0000010a    ....    DCD    266
        0x00003f64:    03010000    ....    DCD    50397184
        0x00003f68:    0000010b    ....    DCD    267
        0x00003f6c:    03010000    ....    DCD    50397184
        0x00003f70:    0000010c    ....    DCD    268
        0x00003f74:    03010000    ....    DCD    50397184
        0x00003f78:    0000010d    ....    DCD    269
        0x00003f7c:    03010000    ....    DCD    50397184
        0x00003f80:    0000010e    ....    DCD    270
        0x00003f84:    00000004    ....    DCD    4
        0x00003f88:    00000202    ....    DCD    514
        0x00003f8c:    00000004    ....    DCD    4
        0x00003f90:    00000203    ....    DCD    515
        0x00003f94:    00000004    ....    DCD    4
        0x00003f98:    00000204    ....    DCD    516
        0x00003f9c:    07010400    ....    DCD    117507072
        0x00003fa0:    00000205    ....    DCD    517
        0x00003fa4:    00010000    ....    DCD    65536
        0x00003fa8:    00000300    ....    DCD    768
        0x00003fac:    03010000    ....    DCD    50397184
        0x00003fb0:    00000301    ....    DCD    769
        0x00003fb4:    03010000    ....    DCD    50397184
        0x00003fb8:    00000302    ....    DCD    770
        0x00003fbc:    00000004    ....    DCD    4
        0x00003fc0:    00000303    ....    DCD    771
        0x00003fc4:    00000004    ....    DCD    4
        0x00003fc8:    00000400    ....    DCD    1024
        0x00003fcc:    03010000    ....    DCD    50397184
        0x00003fd0:    0000040e    ....    DCD    1038
        0x00003fd4:    05010000    ....    DCD    83951616
        0x00003fd8:    00000501    ....    DCD    1281
        0x00003fdc:    05010000    ....    DCD    83951616
        0x00003fe0:    00000502    ....    DCD    1282
        0x00003fe4:    07010410    ....    DCD    117507088
        0x00003fe8:    0000050b    ....    DCD    1291
        0x00003fec:    03010010    ....    DCD    50397200
        0x00003ff0:    0000050c    ....    DCD    1292
        0x00003ff4:    05010000    ....    DCD    83951616
        0x00003ff8:    00000601    ....    DCD    1537
        0x00003ffc:    05010000    ....    DCD    83951616
        0x00004000:    00000602    ....    DCD    1538
        0x00004004:    00000004    ....    DCD    4
        0x00004008:    00000609    ....    DCD    1545
        0x0000400c:    00000004    ....    DCD    4
        0x00004010:    0000060a    ....    DCD    1546
        0x00004014:    00000004    ....    DCD    4
        0x00004018:    0000060b    ....    DCD    1547
        0x0000401c:    05010000    ....    DCD    83951616
        0x00004020:    0000060d    ....    DCD    1549
        0x00004024:    05010000    ....    DCD    83951616
        0x00004028:    0000060e    ....    DCD    1550
        0x0000402c:    03010000    ....    DCD    50397184
        0x00004030:    00000702    ....    DCD    1794
        0x00004034:    03010000    ....    DCD    50397184
        0x00004038:    00000703    ....    DCD    1795
        0x0000403c:    00004000    .@..    DCD    16384
        0x00004040:    00000806    ....    DCD    2054
        0x00004044:    00000004    ....    DCD    4
        0x00004048:    00000905    ....    DCD    2309
    g_i2c_1
        0x0000404c:    200004d8    ...     DCD    536872152
        0x00004050:    00004058    X@..    DCD    16472
        0x00004054:    000040a0    .@..    DCD    16544
    g_i2c_1_cfg
        0x00004058:    00000001    ....    DCD    1
        0x0000405c:    000f4240    @B..    DCD    1000000
        0x00004060:    0000003c    <...    DCD    60
        0x00004064:    00000001    ....    DCD    1
        0x00004068:    0000000c    ....    DCD    12
        0x0000406c:    00000004    ....    DCD    4
        0x00004070:    00000005    ....    DCD    5
        0x00004074:    00000006    ....    DCD    6
        0x00004078:    00000007    ....    DCD    7
        0x0000407c:    00000000    ....    DCD    0
        0x00004080:    00000000    ....    DCD    0
        0x00004084:    00001337    7...    DCD    4919
        0x00004088:    00000000    ....    DCD    0
        0x0000408c:    00004090    .@..    DCD    16528
    g_i2c_1_extend
        0x00004090:    00000001    ....    DCD    1
        0x00004094:    00000001    ....    DCD    1
        0x00004098:    000f0f00    ....    DCD    986880
        0x0000409c:    00000000    ....    DCD    0
    g_i2c_master_on_iic
        0x000040a0:    00000777    w...    DCD    1911
        0x000040a4:    000007f7    ....    DCD    2039
        0x000040a8:    00000825    %...    DCD    2085
        0x000040ac:    00000667    g...    DCD    1639
        0x000040b0:    00000803    ....    DCD    2051
        0x000040b4:    00000699    ....    DCD    1689
        0x000040b8:    0000080d    ....    DCD    2061
        0x000040bc:    000006a7    ....    DCD    1703
    g_init_info
        0x000040c0:    00000004    ....    DCD    4
        0x000040c4:    00004804    .H..    DCD    18436
        0x000040c8:    00000008    ....    DCD    8
        0x000040cc:    00003eb8    .>..    DCD    16056
        0x000040d0:    00000002    ....    DCD    2
        0x000040d4:    00004274    tB..    DCD    17012
    g_interrupt_event_link_select
        0x000040d8:    000001aa    ....    DCD    426
        0x000040dc:    000001ab    ....    DCD    427
        0x000040e0:    000001ac    ....    DCD    428
        0x000040e4:    000001ad    ....    DCD    429
        0x000040e8:    00000078    x...    DCD    120
        0x000040ec:    00000079    y...    DCD    121
        0x000040f0:    0000007a    z...    DCD    122
        0x000040f4:    0000007b    {...    DCD    123
        0x000040f8:    000001b6    ....    DCD    438
        0x000040fc:    000001b7    ....    DCD    439
        0x00004100:    000001b8    ....    DCD    440
        0x00004104:    000001b9    ....    DCD    441
        0x00004108:    000000f3    ....    DCD    243
        0x0000410c:    0000019e    ....    DCD    414
        0x00004110:    0000019f    ....    DCD    415
        0x00004114:    000001a0    ....    DCD    416
        0x00004118:    000001a1    ....    DCD    417
    g_prcr_masks
        0x0000411c:    00020001    ....    DCD    131073
        0x00004120:    00100008    ....    DCD    1048584
        0x00004124:    00000020     ...    DCD    32
    g_uart7
        0x00004128:    20000534    4..     DCD    536872244
        0x0000412c:    00004134    4A..    DCD    16692
        0x00004130:    000041a4    .A..    DCD    16804
    g_uart7_cfg
        0x00004134:    00000007    ....    DCD    7
        0x00004138:    00000002    ....    DCD    2
        0x0000413c:    00000000    ....    DCD    0
        0x00004140:    00000000    ....    DCD    0
        0x00004144:    0000000c    ....    DCD    12
        0x00004148:    00000000    ....    DCD    0
        0x0000414c:    0000000c    ....    DCD    12
        0x00004150:    00000001    ....    DCD    1
        0x00004154:    0000000c    ....    DCD    12
        0x00004158:    00000002    ....    DCD    2
        0x0000415c:    0000000c    ....    DCD    12
        0x00004160:    00000003    ....    DCD    3
        0x00004164:    00000000    ....    DCD    0
        0x00004168:    00000000    ....    DCD    0
        0x0000416c:    0000252b    +%..    DCD    9515
        0x00004170:    00000000    ....    DCD    0
        0x00004174:    00004178    xA..    DCD    16760
    g_uart7_cfg_extend
        0x00004178:    00000000    ....    DCD    0
        0x0000417c:    00000001    ....    DCD    1
        0x00004180:    00000000    ....    DCD    0
        0x00004184:    20000000    ...     DCD    536870912
        0x00004188:    0000000f    ....    DCD    15
        0x0000418c:    0000ffff    ....    DCD    65535
        0x00004190:    00000000    ....    DCD    0
        0x00004194:    00000000    ....    DCD    0
        0x00004198:    00000000    ....    DCD    0
        0x0000419c:    0000ffff    ....    DCD    65535
        0x000041a0:    00000000    ....    DCD    0
    g_uart_on_sci
        0x000041a4:    00000991    ....    DCD    2449
        0x000041a8:    00000ccd    ....    DCD    3277
        0x000041ac:    00000ced    ....    DCD    3309
        0x000041b0:    00000869    i...    DCD    2153
        0x000041b4:    00000985    ....    DCD    2437
        0x000041b8:    00000847    G...    DCD    2119
        0x000041bc:    000008d1    ....    DCD    2257
        0x000041c0:    000008df    ....    DCD    2271
        0x000041c4:    00000cd7    ....    DCD    3287
        0x000041c8:    00000ce9    ....    DCD    3305
        0x000041cc:    00000ce5    ....    DCD    3301
    __tagsym$$used.10
    gp_ddsc_DATA_FLASH_END
        0x000041d0:    08000000    ....    DCD    134217728
    __tagsym$$used.9
    gp_ddsc_DATA_FLASH_START
        0x000041d4:    08000000    ....    DCD    134217728
    __tagsym$$used.12
    gp_ddsc_FLASH_END
        0x000041d8:    00004c00    .L..    DCD    19456
    __tagsym$$used.13
    gp_ddsc_FLASH_NSC
        0x000041dc:    00004c00    .L..    DCD    19456
    __tagsym$$used.11
    gp_ddsc_FLASH_START
        0x000041e0:    00000000    ....    DCD    0
    __tagsym$$used.24
    gp_ddsc_OPTION_SETTING_BANKSEL_END
        0x000041e4:    0100a190    ....    DCD    16818576
    __tagsym$$used.32
    gp_ddsc_OPTION_SETTING_BANKSEL_SEC_END
        0x000041e8:    0100a210    ....    DCD    16818704
    __tagsym$$used.31
    gp_ddsc_OPTION_SETTING_BANKSEL_SEC_START
        0x000041ec:    0100a210    ....    DCD    16818704
    __tagsym$$used.40
    gp_ddsc_OPTION_SETTING_BANKSEL_SEL_END
        0x000041f0:    0100a290    ....    DCD    16818832
    __tagsym$$used.39
    gp_ddsc_OPTION_SETTING_BANKSEL_SEL_START
        0x000041f4:    0100a290    ....    DCD    16818832
    __tagsym$$used.23
    gp_ddsc_OPTION_SETTING_BANKSEL_START
        0x000041f8:    0100a190    ....    DCD    16818576
    __tagsym$$used.26
    gp_ddsc_OPTION_SETTING_BPS_END
        0x000041fc:    0100a1c0    ....    DCD    16818624
    __tagsym$$used.34
    gp_ddsc_OPTION_SETTING_BPS_SEC_END
        0x00004200:    0100a240    @...    DCD    16818752
    __tagsym$$used.33
    gp_ddsc_OPTION_SETTING_BPS_SEC_START
        0x00004204:    0100a240    @...    DCD    16818752
    __tagsym$$used.42
    gp_ddsc_OPTION_SETTING_BPS_SEL_END
        0x00004208:    0100a2c0    ....    DCD    16818880
    __tagsym$$used.41
    gp_ddsc_OPTION_SETTING_BPS_SEL_START
        0x0000420c:    0100a2c0    ....    DCD    16818880
    __tagsym$$used.25
    gp_ddsc_OPTION_SETTING_BPS_START
        0x00004210:    0100a1c0    ....    DCD    16818624
    __tagsym$$used.20
    gp_ddsc_OPTION_SETTING_DUALSEL_END
        0x00004214:    0100a110    ....    DCD    16818448
    __tagsym$$used.19
    gp_ddsc_OPTION_SETTING_DUALSEL_START
        0x00004218:    0100a110    ....    DCD    16818448
    __tagsym$$used.18
    gp_ddsc_OPTION_SETTING_OFS0_END
        0x0000421c:    0100a104    ....    DCD    16818436
    __tagsym$$used.17
    gp_ddsc_OPTION_SETTING_OFS0_START
        0x00004220:    0100a100    ....    DCD    16818432
    __tagsym$$used.22
    gp_ddsc_OPTION_SETTING_OFS1_END
        0x00004224:    0100a180    ....    DCD    16818560
    __tagsym$$used.30
    gp_ddsc_OPTION_SETTING_OFS1_SEC_END
        0x00004228:    0100a204    ....    DCD    16818692
    __tagsym$$used.29
    gp_ddsc_OPTION_SETTING_OFS1_SEC_START
        0x0000422c:    0100a200    ....    DCD    16818688
    __tagsym$$used.38
    gp_ddsc_OPTION_SETTING_OFS1_SEL_END
        0x00004230:    0100a284    ....    DCD    16818820
    __tagsym$$used.37
    gp_ddsc_OPTION_SETTING_OFS1_SEL_START
        0x00004234:    0100a280    ....    DCD    16818816
    __tagsym$$used.21
    gp_ddsc_OPTION_SETTING_OFS1_START
        0x00004238:    0100a180    ....    DCD    16818560
    __tagsym$$used.28
    gp_ddsc_OPTION_SETTING_PBPS_END
        0x0000423c:    0100a1e0    ....    DCD    16818656
    __tagsym$$used.36
    gp_ddsc_OPTION_SETTING_PBPS_SEC_END
        0x00004240:    0100a260    `...    DCD    16818784
    __tagsym$$used.35
    gp_ddsc_OPTION_SETTING_PBPS_SEC_START
        0x00004244:    0100a260    `...    DCD    16818784
    __tagsym$$used.27
    gp_ddsc_OPTION_SETTING_PBPS_START
        0x00004248:    0100a1e0    ....    DCD    16818656
    __tagsym$$used.8
    gp_ddsc_OSPI0_CS0_END
        0x0000424c:    68000000    ...h    DCD    1744830464
    __tagsym$$used.7
    gp_ddsc_OSPI0_CS0_START
        0x00004250:    68000000    ...h    DCD    1744830464
    __tagsym$$used.6
    gp_ddsc_OSPI0_CS1_END
        0x00004254:    70000000    ...p    DCD    1879048192
    __tagsym$$used.5
    gp_ddsc_OSPI0_CS1_START
        0x00004258:    70000000    ...p    DCD    1879048192
    __tagsym$$used.4
    gp_ddsc_QSPI_FLASH_END
        0x0000425c:    60000000    ...`    DCD    1610612736
    __tagsym$$used.3
    gp_ddsc_QSPI_FLASH_START
        0x00004260:    60000000    ...`    DCD    1610612736
    __tagsym$$used.15
    gp_ddsc_RAM_END
        0x00004264:    20001800    ...     DCD    536877056
    __tagsym$$used.16
    gp_ddsc_RAM_NSC
        0x00004268:    20001800    ...     DCD    536877056
    __tagsym$$used.14
    gp_ddsc_RAM_START
        0x0000426c:    20000000    ...     DCD    536870912
    new_thread0_parameters
        0x00004270:    00000000    ....    DCD    0
    nocache_list
        0x00004274:    68000000    ...h    DCD    1744830464
        0x00004278:    68000000    ...h    DCD    1744830464
        0x0000427c:    20000020     ..     DCD    536870944
        0x00004280:    20000020     ..     DCD    536870944
        0x00004284:    28202821    !( (    DCD    673196065
        0x00004288:    51787020     pxQ    DCD    1366847520
        0x0000428c:    65756575    ueue    DCD    1702192501
        0x00004290:    63703e2d    ->pc    DCD    1668300333
        0x00004294:    64616548    Head    DCD    1684104520
        0x00004298:    203d3d20     ==     DCD    540884256
        0x0000429c:    20292030    0 )     DCD    539566128
        0x000042a0:    28202626    && (    DCD    673195558
        0x000042a4:    51787020     pxQ    DCD    1366847520
        0x000042a8:    65756575    ueue    DCD    1702192501
        0x000042ac:    2e753e2d    ->u.    DCD    779435565
        0x000042b0:    6d655378    xSem    DCD    1835357048
        0x000042b4:    6f687061    apho    DCD    1869115489
        0x000042b8:    782e6572    re.x    DCD    2016306546
        0x000042bc:    6574754d    Mute    DCD    1702131021
        0x000042c0:    6c6f4878    xHol    DCD    1819232376
        0x000042c4:    20726564    der     DCD    544367972
        0x000042c8:    30203d21    != 0    DCD    807419169
        0x000042cc:    29202920     ) )    DCD    689973536
        0x000042d0:    00          .       DCB    0
    .L.str.10
        0x000042d1:    212820      !(      DCB    33,40,32
        0x000042d4:    54782028    ( xT    DCD    1417158696
        0x000042d8:    476b7361    askG    DCD    1198224225
        0x000042dc:    63537465    etSc    DCD    1666413669
        0x000042e0:    75646568    hedu    DCD    1969513832
        0x000042e4:    5372656c    lerS    DCD    1400005996
        0x000042e8:    65746174    tate    DCD    1702125940
        0x000042ec:    3d202928    () =    DCD    1025517864
        0x000042f0:    2028203d    = (     DCD    539500605
        0x000042f4:    61422028    ( Ba    DCD    1631723560
        0x000042f8:    79546573    seTy    DCD    2035574131
        0x000042fc:    745f6570    pe_t    DCD    1952408944
        0x00004300:    30202920     ) 0    DCD    807414048
        0x00004304:    29202920     ) )    DCD    689973536
        0x00004308:    20262620     &&     DCD    539371040
        0x0000430c:    54782028    ( xT    DCD    1417158696
        0x00004310:    736b6369    icks    DCD    1936417641
        0x00004314:    61576f54    ToWa    DCD    1633120084
        0x00004318:    21207469    it !    DCD    555775081
        0x0000431c:    2030203d    = 0     DCD    540024893
        0x00004320:    00292029    ) ).    DCD    2695209
    .L.str.9
        0x00004324:    28202821    !( (    DCD    673196065
        0x00004328:    6f437820     xCo    DCD    1866692640
        0x0000432c:    6f507970    pyPo    DCD    1867544944
        0x00004330:    69746973    siti    DCD    1769236851
        0x00004334:    3d206e6f    on =    DCD    1025535599
        0x00004338:    2028203d    = (     DCD    539500605
        0x0000433c:    61422028    ( Ba    DCD    1631723560
        0x00004340:    79546573    seTy    DCD    2035574131
        0x00004344:    745f6570    pe_t    DCD    1952408944
        0x00004348:    32202920     ) 2    DCD    840968480
        0x0000434c:    29202920     ) )    DCD    689973536
        0x00004350:    20262620     &&     DCD    539371040
        0x00004354:    78702028    ( px    DCD    2020614184
        0x00004358:    75657551    Queu    DCD    1969583441
        0x0000435c:    753e2d65    e->u    DCD    1967009125
        0x00004360:    6e654c78    xLen    DCD    1852132472
        0x00004364:    20687467    gth     DCD    543716455
        0x00004368:    31203d21    != 1    DCD    824196385
        0x0000436c:    29202920     ) )    DCD    689973536
        0x00004370:    00          .       DCB    0
    .L.str.15
        0x00004371:    212820      !(      DCB    33,40,32
        0x00004374:    20282028    ( (     DCD    539500584
        0x00004378:    75427670    pvBu    DCD    1967289968
        0x0000437c:    72656666    ffer    DCD    1919247974
        0x00004380:    3d202920     ) =    DCD    1025517856
        0x00004384:    2030203d    = 0     DCD    540024893
        0x00004388:    26262029    ) &&    DCD    640032809
        0x0000438c:    28202820     ( (    DCD    673196064
        0x00004390:    51787020     pxQ    DCD    1366847520
        0x00004394:    65756575    ueue    DCD    1702192501
        0x00004398:    3e2d2920     )->    DCD    1043147040
        0x0000439c:    74497875    uxIt    DCD    1950972021
        0x000043a0:    69536d65    emSi    DCD    1767075173
        0x000043a4:    2120657a    ze !    DCD    555771258
        0x000043a8:    2028203d    = (     DCD    539500605
        0x000043ac:    73614255    UBas    DCD    1935753813
        0x000043b0:    70795465    eTyp    DCD    1886999653
        0x000043b4:    20745f65    e_t     DCD    544497509
        0x000043b8:    55302029    ) 0U    DCD    1429217321
        0x000043bc:    29202920     ) )    DCD    689973536
        0x000043c0:    00          .       DCB    0
    .L.str.8
        0x000043c1:    212820      !(      DCB    33,40,32
        0x000043c4:    76702028    ( pv    DCD    1987059752
        0x000043c8:    6d657449    Item    DCD    1835365449
        0x000043cc:    75516f54    ToQu    DCD    1968271188
        0x000043d0:    65          e       DCB    101
    .L.str.11
        0x000043d1:    756520      ue      DCB    117,101,32
        0x000043d4:    30203d3d    == 0    DCD    807419197
        0x000043d8:    26202920     ) &    DCD    639641888
        0x000043dc:    20282026    & (     DCD    539500582
        0x000043e0:    75517870    pxQu    DCD    1968273520
        0x000043e4:    2d657565    eue-    DCD    761623909
        0x000043e8:    4978753e    >uxI    DCD    1232631102
        0x000043ec:    536d6574    temS    DCD    1399678324
        0x000043f0:    20657a69    ize     DCD    543521385
        0x000043f4:    28203d21    != (    DCD    673201441
        0x000043f8:    61425520     UBa    DCD    1631737120
        0x000043fc:    79546573    seTy    DCD    2035574131
        0x00004400:    745f6570    pe_t    DCD    1952408944
        0x00004404:    30202920     ) 0    DCD    807414048
        0x00004408:    20292055    U )     DCD    539566165
    .L.str.13
        0x0000440c:    28210029    ).!(    DCD    673251369
        0x00004410:    70202820     ( p    DCD    1881155616
        0x00004414:    66754276    vBuf    DCD    1718960758
        0x00004418:    20726566    fer     DCD    544367974
        0x0000441c:    30203d3d    == 0    DCD    807419197
        0x00004420:    26202920     ) &    DCD    639641888
        0x00004424:    20282026    & (     DCD    539500582
        0x00004428:    75517870    pxQu    DCD    1968273520
        0x0000442c:    2d657565    eue-    DCD    761623909
        0x00004430:    4978753e    >uxI    DCD    1232631102
        0x00004434:    536d6574    temS    DCD    1399678324
        0x00004438:    20657a69    ize     DCD    543521385
        0x0000443c:    28203d21    != (    DCD    673201441
        0x00004440:    61425520     UBa    DCD    1631737120
        0x00004444:    79546573    seTy    DCD    2035574131
        0x00004448:    745f6570    pe_t    DCD    1952408944
        0x0000444c:    30202920     ) 0    DCD    807414048
        0x00004450:    20292055    U )     DCD    539566165
        0x00004454:    20280029    ).(     DCD    539492393
        0x00004458:    4c785463    cTxL    DCD    1282954339
        0x0000445c:    206b636f    ock     DCD    543908719
        0x00004460:    3d212029    ) !=    DCD    1025581097
        0x00004464:    28202820     ( (    DCD    673196064
        0x00004468:    746e6920     int    DCD    1953392928
        0x0000446c:    20745f38    8_t     DCD    544497464
        0x00004470:    32312029    ) 12    DCD    842080297
        0x00004474:    00292037    7 ).    DCD    2695223
    .L.str.14
        0x00004478:    78702028    ( px    DCD    2020614184
        0x0000447c:    75657551    Queu    DCD    1969583441
        0x00004480:    00292065    e ).    DCD    2695269
    .L.str.12
        0x00004484:    75517870    pxQu    DCD    1968273520
        0x00004488:    2d657565    eue-    DCD    761623909
        0x0000448c:    4978753e    >uxI    DCD    1232631102
        0x00004490:    536d6574    temS    DCD    1399678324
        0x00004494:    20657a69    ize     DCD    543521385
        0x00004498:    30203d3d    == 0    DCD    807419197
        0x0000449c:    00          .       DCB    0
    .L.str.1
        0x0000449d:    443a2f      D:/     DCB    68,58,47
        0x000044a0:    72657355    User    DCD    1919251285
        0x000044a4:    62612f73    s/ab    DCD    1650536307
        0x000044a8:    65442f63    c/De    DCD    1698967395
        0x000044ac:    6f746b73    skto    DCD    1869900659
        0x000044b0:    6f772f70    p/wo    DCD    1870081904
        0x000044b4:    72          r       DCB    114
    .L.str.16
        0x000044b5:    6b2f6b      k/k     DCB    107,47,107
        0x000044b8:    2f6c6965    eil/    DCD    795634021
        0x000044bc:    53495552    RUIS    DCD    1397314898
        0x000044c0:    54522f41    A/RT    DCD    1414672193
        0x000044c4:    645f534f    OS_d    DCD    1683968847
        0x000044c8:    67756265    ebug    DCD    1735746149
        0x000044cc:    2f61722f    /ra/    DCD    794915375
        0x000044d0:    2f737761    aws/    DCD    796096353
        0x000044d4:    65657246    Free    DCD    1701147206
        0x000044d8:    534f5452    RTOS    DCD    1397707858
        0x000044dc:    6572462f    /Fre    DCD    1701987887
        0x000044e0:    4f545265    eRTO    DCD    1330926181
        0x000044e4:    6f532f53    S/So    DCD    1867722579
        0x000044e8:    65637275    urce    DCD    1701016181
        0x000044ec:    6575712f    /que    DCD    1702195503
        0x000044f0:    632e6575    ue.c    DCD    1663985013
        0x000044f4:    00          .       DCB    0
    .L.str
        0x000044f5:    70          p       DCB    112
    .L.str.19
        0x000044f6:    5178        xQ      DCW    20856
        0x000044f8:    65756575    ueue    DCD    1702192501
        0x000044fc:    00          .       DCB    0
    .L.str
    .L.str.13
        0x000044fd:    282028      ( (     DCB    40,32,40
        0x00004500:    28202820     ( (    DCD    673196064
        0x00004504:    44787020     pxD    DCD    1148743712
        0x00004508:    79616c65    elay    DCD    2036427877
        0x0000450c:    61546465    edTa    DCD    1632920677
        0x00004510:    694c6b73    skLi    DCD    1766615923
        0x00004514:    29207473    st )    DCD    689992819
        0x00004518:    78753e2d    ->ux    DCD    2020949549
        0x0000451c:    626d754e    Numb    DCD    1651340622
        0x00004520:    664f7265    erOf    DCD    1716482661
        0x00004524:    6d657449    Item    DCD    1835365449
        0x00004528:    3d3d2073    s ==    DCD    1027416179
        0x0000452c:    55202820     ( U    DCD    1428170784
        0x00004530:    65736142    Base    DCD    1702060354
        0x00004534:    65707954    Type    DCD    1701869908
        0x00004538:    2920745f    _t )    DCD    689992799
        0x0000453c:    29203020     0 )    DCD    689975328
        0x00004540:    28203f20     ? (    DCD    673201952
        0x00004544:    42202820     ( B    DCD    1109403680
        0x00004548:    54657361    aseT    DCD    1415934817
        0x0000454c:    5f657079    ype_    DCD    1600483449
        0x00004550:    20292074    t )     DCD    539566196
        0x00004554:    20292031    1 )     DCD    539566129
        0x00004558:    2028203a    : (     DCD    539500602
        0x0000455c:    61422028    ( Ba    DCD    1631723560
        0x00004560:    79546573    seTy    DCD    2035574131
        0x00004564:    745f6570    pe_t    DCD    1952408944
        0x00004568:    30202920     ) 0    DCD    807414048
        0x0000456c:    29202920     ) )    DCD    689973536
        0x00004570:    75002920     ).u    DCD    1962944800
        0x00004574:    646e4978    xInd    DCD    1684949368
        0x00004578:    6f547865    exTo    DCD    1867806821
        0x0000457c:    74696157    Wait    DCD    1953063255
        0x00004580:    3c206e4f    On <    DCD    1008758351
        0x00004584:    29312820     (1)    DCD    691087392
        0x00004588:    7500        .u      DCW    29952
    .L.str.6
        0x0000458a:    4978        xI      DCW    18808
        0x0000458c:    7865646e    ndex    DCD    2019910766
        0x00004590:    6c436f54    ToCl    DCD    1816358740
        0x00004594:    20726165    ear     DCD    544366949
        0x00004598:    3128203c    < (1    DCD    824713276
        0x0000459c:    78750029    ).ux    DCD    2020933673
        0x000045a0:    65646e49    Inde    DCD    1701080649
        0x000045a4:    4e6f5478    xToN    DCD    1315918968
        0x000045a8:    6669746f    otif    DCD    1718187119
        0x000045ac:    203c2079    y <     DCD    540811385
        0x000045b0:    00293128    (1).    DCD    2699560
        0x000045b4:    63695478    xTic    DCD    1667847288
        0x000045b8:    756f436b    kCou    DCD    1970226027
        0x000045bc:    3d20746e    nt =    DCD    1025537134
        0x000045c0:    2028203d    = (     DCD    539500605
        0x000045c4:    6b636954    Tick    DCD    1801677140
        0x000045c8:    65707954    Type    DCD    1701869908
        0x000045cc:    2920745f    _t )    DCD    689992799
        0x000045d0:    28003020     0.(    DCD    671100960
        0x000045d4:    26202820     ( &    DCD    639641632
        0x000045d8:    78702028    ( px    DCD    2020614184
        0x000045dc:    2d424354    TCB-    DCD    759317332
        0x000045e0:    7645783e    >xEv    DCD    1984264254
        0x000045e4:    4c746e65    entL    DCD    1282698853
        0x000045e8:    49747369    istI    DCD    1232368489
        0x000045ec:    206d6574    tem     DCD    544040308
        0x000045f0:    2d292029    ) )-    DCD    757669929
        0x000045f4:    4378703e    >pxC    DCD    1131966526
        0x000045f8:    61746e6f    onta    DCD    1635020399
        0x000045fc:    72656e69    iner    DCD    1919250025
        0x00004600:    3d202920     ) =    DCD    1025517856
        0x00004604:    0030203d    = 0.    DCD    3153981
        0x00004608:    63537875    uxSc    DCD    1666414709
        0x0000460c:    75646568    hedu    DCD    1969513832
        0x00004610:    5372656c    lerS    DCD    1400005996
        0x00004614:    65707375    uspe    DCD    1701868405
        0x00004618:    646e        nd      DCW    25710
    .L.str.16
        0x0000461a:    6465        ed      DCW    25701
        0x0000461c:    203d3d20     ==     DCD    540884256
        0x00004620:    0030        0.      DCW    48
    .L.str.17
        0x00004622:    7870        px      DCW    30832
        0x00004624:    6c626e55    Unbl    DCD    1818390101
        0x00004628:    656b636f    ocke    DCD    1701536623
        0x0000462c:    42435464    dTCB    DCD    1111708772
        0x00004630:    4c444900    .IDL    DCD    1279543552
        0x00004634:    78750045    E.ux    DCD    2020933701
        0x00004638:    65686353    Sche    DCD    1701339987
        0x0000463c:    656c7564    dule    DCD    1701606756
        0x00004640:    73755372    rSus    DCD    1937068914
        0x00004644:    646e6570    pend    DCD    1684956528
        0x00004648:    21206465    ed !    DCD    555770981
        0x0000464c:    2028203d    = (     DCD    539500605
        0x00004650:    73614255    UBas    DCD    1935753813
        0x00004654:    70795465    eTyp    DCD    1886999653
        0x00004658:    20745f65    e_t     DCD    544497509
        0x0000465c:    2029        )       DCW    8233
    .L.str.21
        0x0000465e:    5530        0U      DCW    21808
        0x00004660:    00          .       DCB    0
    .L.str.4
        0x00004661:    757853      uxS     DCB    117,120,83
        0x00004664:    64656863    ched    DCD    1684367459
        0x00004668:    72656c75    uler    DCD    1919249525
        0x0000466c:    70737553    Susp    DCD    1886614867
        0x00004670:    65646e65    ende    DCD    1701080677
    .L.str.22
        0x00004674:    3d3d2064    d ==    DCD    1027416164
        0x00004678:    00553120     1U.    DCD    5583136
    .L.str.1
        0x0000467c:    552f3a44    D:/U    DCD    1429158468
        0x00004680:    73726573    sers    DCD    1936876915
        0x00004684:    6362612f    /abc    DCD    1667391791
        0x00004688:    442f        /D      DCW    17455
    .L.str.23
        0x0000468a:    7365        es      DCW    29541
        0x0000468c:    706f746b    ktop    DCD    1886352491
        0x00004690:    726f772f    /wor    DCD    1919907631
        0x00004694:    656b2f6b    k/ke    DCD    1701523307
    .L.str.24
        0x00004698:    522f6c69    il/R    DCD    1378839657
        0x0000469c:    41534955    UISA    DCD    1095977301
        0x000046a0:    4f54522f    /RTO    DCD    1330926127
        0x000046a4:    65645f53    S_de    DCD    1701076819
        0x000046a8:    2f677562    bug/    DCD    795309410
        0x000046ac:    612f6172    ra/a    DCD    1630495090
        0x000046b0:    462f7377    ws/F    DCD    1177514871
        0x000046b4:    6572        re      DCW    25970
        0x000046b6:    65          e       DCB    101
    .L.str.25
        0x000046b7:    52          R       DCB    82
        0x000046b8:    2f534f54    TOS/    DCD    793988948
        0x000046bc:    65657246    Free    DCD    1701147206
        0x000046c0:    534f5452    RTOS    DCD    1397707858
        0x000046c4:    756f532f    /Sou    DCD    1970230063
        0x000046c8:    2f656372    rce/    DCD    795173746
        0x000046cc:    6b736174    task    DCD    1802723700
        0x000046d0:    00632e73    s.c.    DCD    6499955
        0x000046d4:    73615478    xTas    DCD    1935758456
        0x000046d8:    526f546b    kToR    DCD    1383027819
        0x000046dc:    6d757365    esum    DCD    1836413797
        0x000046e0:    0065        e.      DCW    101
    .L.str.15
        0x000046e2:    7870        px      DCW    30832
        0x000046e4:    6e657645    Even    DCD    1852143173
        0x000046e8:    73694c74    tLis    DCD    1936280692
    .L.str.26
        0x000046ec:    0074        t.      DCW    116
    .L.str.18
        0x000046ee:    7870        px      DCW    30832
        0x000046f0:    656d6954    Time    DCD    1701669204
        0x000046f4:    0074754f    Out.    DCD    7632207
        0x000046f8:    73615478    xTas    DCD    1935758456
        0x000046fc:    4e6f546b    kToN    DCD    1315918955
        0x00004700:    6669746f    otif    DCD    1718187119
        0x00004704:    0079        y.      DCW    121
    .L.str.2
        0x00004706:    3a44        D:      DCW    14916
        0x00004708:    6573552f    /Use    DCD    1702057263
        0x0000470c:    612f7372    rs/a    DCD    1630499698
        0x00004710:    442f6362    bc/D    DCD    1143956322
        0x00004714:    746b7365    eskt    DCD    1953198949
        0x00004718:    772f706f    op/w    DCD    1999597679
        0x0000471c:    2f6b726f    ork/    DCD    795570799
        0x00004720:    6c69656b    keil    DCD    1818846571
        0x00004724:    4955522f    /RUI    DCD    1230328367
        0x00004728:    522f4153    SA/R    DCD    1378828627
        0x0000472c:    5f534f54    TOS_    DCD    1599295316
        0x00004730:    75626564    debu    DCD    1969382756
        0x00004734:    61722f67    g/ra    DCD    1634873191
        0x00004738:    7377612f    /aws    DCD    1937203503
        0x0000473c:    6572462f    /Fre    DCD    1701987887
        0x00004740:    4f545265    eRTO    DCD    1330926181
        0x00004744:    72462f53    S/Fr    DCD    1917202259
        0x00004748:    54526565    eeRT    DCD    1414686053
        0x0000474c:    532f534f    OS/S    DCD    1395610447
        0x00004750:    6372756f    ourc    DCD    1668445551
        0x00004754:    69742f65    e/ti    DCD    1769221989
        0x00004758:    7372656d    mers    DCD    1936876909
        0x0000475c:    632e        .c      DCW    25390
        0x0000475e:    00          .       DCB    0
    .L.str.5
        0x0000475f:    78          x       DCB    120
        0x00004760:    656d6954    Time    DCD    1701669204
        0x00004764:    0072        r.      DCW    114
    .L.str.2
        0x00004766:    2828        ((      DCW    10280
        0x00004768:    42435328    (SCB    DCD    1111708456
        0x0000476c:    7079545f    _Typ    DCD    1886999647
        0x00004770:    292a2065    e *)    DCD    690626661
        0x00004774:    30282820     ((0    DCD    807938080
        0x00004778:    30304578    xE00    DCD    808469880
        0x0000477c:    30304530    0E00    DCD    808469808
        0x00004780:    294c5530    0UL)    DCD    692868400
        0x00004784:    30202b20     + 0    DCD    807414560
        0x00004788:    30443078    x0D0    DCD    809775224
        0x0000478c:    294c5530    0UL)    DCD    692868400
        0x00004790:    3e2d2920     )->    DCD    1043147040
        0x00004794:    52534349    ICSR    DCD    1381188425
        0x00004798:    28202620     & (    DCD    673195552
        0x0000479c:    46317830    0x1F    DCD    1177647152
        0x000047a0:    204c5546    FUL     DCD    541873478
        0x000047a4:    3d202929    )) =    DCD    1025517865
        0x000047a8:    0030203d    = 0.    DCD    3153981
    .L.str.1
        0x000047ac:    552f3a44    D:/U    DCD    1429158468
        0x000047b0:    73726573    sers    DCD    1936876915
        0x000047b4:    6362612f    /abc    DCD    1667391791
        0x000047b8:    7365442f    /Des    DCD    1936016431
        0x000047bc:    706f746b    ktop    DCD    1886352491
        0x000047c0:    726f772f    /wor    DCD    1919907631
        0x000047c4:    656b2f6b    k/ke    DCD    1701523307
        0x000047c8:    522f6c69    il/R    DCD    1378839657
        0x000047cc:    41534955    UISA    DCD    1095977301
        0x000047d0:    4f54522f    /RTO    DCD    1330926127
        0x000047d4:    65645f53    S_de    DCD    1701076819
        0x000047d8:    2f677562    bug/    DCD    795309410
        0x000047dc:    662f6172    ra/f    DCD    1714381170
        0x000047e0:    732f7073    sp/s    DCD    1932488819
        0x000047e4:    722f6372    rc/r    DCD    1915708274
        0x000047e8:    72665f6d    m_fr    DCD    1919311725
        0x000047ec:    74726565    eert    DCD    1953654117
        0x000047f0:    705f736f    os_p    DCD    1885303663
        0x000047f4:    2f74726f    ort/    DCD    796160623
        0x000047f8:    74726f70    port    DCD    1953656688
        0x000047fc:    0000632e    .c..    DCD    25390
    uxTopUsedPriority
        0x00004800:    00000004    ....    DCD    4
    zero_list
        0x00004804:    68000000    ...h    DCD    1744830464
        0x00004808:    68000000    ...h    DCD    1744830464
        0x0000480c:    08000100    ....    DCD    134217984
        0x00004810:    68000000    ...h    DCD    1744830464
        0x00004814:    68000000    ...h    DCD    1744830464
        0x00004818:    08000100    ....    DCD    134217984
        0x0000481c:    20000020     ..     DCD    536870944
        0x00004820:    20000020     ..     DCD    536870944
        0x00004824:    03000000    ....    DCD    50331648
        0x00004828:    2000043c    <..     DCD    536871996
        0x0000482c:    20000d28    (..     DCD    536874280
        0x00004830:    03000000    ....    DCD    50331648
    __tagsym$$used.0
    g_fsp_version
        0x00004834:    06040000    ....    DCD    100925440
    __tagsym$$used.1
    g_fsp_version_string
        0x00004838:    2e342e36    6.4.    DCD    775171638
        0x0000483c:    0030        0.      DCW    48
    __tagsym$$used.2
    g_fsp_version_build_string
        0x0000483e:    7542        Bu      DCW    30018
        0x00004840:    20746c69    ilt     DCD    544500841
        0x00004844:    68746977    with    DCD    1752459639
        0x00004848:    6e655220     Ren    DCD    1852133920
        0x0000484c:    73617365    esas    DCD    1935766373
        0x00004850:    76644120     Adv    DCD    1986281760
        0x00004854:    65636e61    ance    DCD    1701015137
        0x00004858:    6c462064    d Fl    DCD    1816535140
        0x0000485c:    62697865    exib    DCD    1651079269
        0x00004860:    5320656c    le S    DCD    1394632044
        0x00004864:    7774666f    oftw    DCD    2004117103
        0x00004868:    20657261    are     DCD    543519329
        0x0000486c:    6b636150    Pack    DCD    1801675088
        0x00004870:    20656761    age     DCD    543516513
        0x00004874:    73726576    vers    DCD    1936876918
        0x00004878:    206e6f69    ion     DCD    544108393
        0x0000487c:    2e342e36    6.4.    DCD    775171638
        0x00004880:    00000030    0...    DCD    48

** Section #57 '__init_array_start' (SHT_NOBITS) [SHF_ALLOC + SHF_WRITE]
    Size   : 0 bytes (alignment 4)
    Address: 0x00004884


** Section #58 '__init_array_end' (SHT_NOBITS) [SHF_ALLOC + SHF_WRITE]
    Size   : 0 bytes (alignment 4)
    Address: 0x00004884


** Section #59 '__ddsc_FLASH_END' (SHT_NOBITS) [SHF_ALLOC + SHF_WRITE]
    Size   : 0 bytes (alignment 4)
    Address: 0x00004c00


** Section #60 '.flash.endof' (SHT_NOBITS) [SHF_ALLOC + SHF_WRITE]
    Size   : 0 bytes (alignment 4)
    Address: 0x00004c00


** Section #61 '__ddsc_FLASH_NSC' (SHT_NOBITS) [SHF_ALLOC + SHF_WRITE]
    Size   : 0 bytes (alignment 4)
    Address: 0x00004c00


** Section #62 '.flash.flat_nsc' (SHT_NOBITS) [SHF_ALLOC + SHF_WRITE]
    Size   : 0 bytes (alignment 4)
    Address: 0x00004c00


** Section #63 '__FLASH_end' (SHT_NOBITS) [SHF_ALLOC + SHF_WRITE]
    Size   : 0 bytes (alignment 4)
    Address: 0x00004c00


** Section #64 '__OPTION_SETTING_OFS0_start' (SHT_NOBITS) [SHF_ALLOC + SHF_WRITE]
    Size   : 0 bytes (alignment 4)
    Address: 0x0100a100


** Section #65 '__OPTION_SETTING_OFS0_init' (SHT_NOBITS) [SHF_ALLOC + SHF_WRITE]
    Size   : 0 bytes (alignment 4)
    Address: 0x0100a100


** Section #66 '__ddsc_OPTION_SETTING_OFS0_START' (SHT_NOBITS) [SHF_ALLOC + SHF_WRITE]
    Size   : 0 bytes (alignment 4)
    Address: 0x0100a100


** Section #67 '.option_setting_ofs0.startof' (SHT_NOBITS) [SHF_ALLOC + SHF_WRITE]
    Size   : 0 bytes (alignment 4)
    Address: 0x0100a100


** Section #68 '__option_setting_ofs0_reg' (SHT_PROGBITS) [SHF_ALLOC]
    Size   : 4 bytes (alignment 4)
    Address: 0x0100a100


** Section #69 '__ddsc_OPTION_SETTING_OFS0_END' (SHT_NOBITS) [SHF_ALLOC + SHF_WRITE]
    Size   : 0 bytes (alignment 4)
    Address: 0x0100a104


** Section #70 '.option_setting_ofs0.endof' (SHT_NOBITS) [SHF_ALLOC + SHF_WRITE]
    Size   : 0 bytes (alignment 4)
    Address: 0x0100a104


** Section #71 '__OPTION_SETTING_OFS0_end' (SHT_NOBITS) [SHF_ALLOC + SHF_WRITE]
    Size   : 0 bytes (alignment 4)
    Address: 0x0100a104


** Section #72 '__OPTION_SETTING_DUALSEL_start' (SHT_NOBITS) [SHF_ALLOC + SHF_WRITE]
    Size   : 0 bytes (alignment 4)
    Address: 0x0100a110


** Section #73 '__OPTION_SETTING_DUALSEL_init' (SHT_NOBITS) [SHF_ALLOC + SHF_WRITE]
    Size   : 0 bytes (alignment 4)
    Address: 0x0100a110


** Section #74 '__ddsc_OPTION_SETTING_DUALSEL_START' (SHT_NOBITS) [SHF_ALLOC + SHF_WRITE]
    Size   : 0 bytes (alignment 4)
    Address: 0x0100a110


** Section #75 '.option_setting_dualsel.startof' (SHT_NOBITS) [SHF_ALLOC + SHF_WRITE]
    Size   : 0 bytes (alignment 4)
    Address: 0x0100a110


** Section #76 '__ddsc_OPTION_SETTING_DUALSEL_END' (SHT_NOBITS) [SHF_ALLOC + SHF_WRITE]
    Size   : 0 bytes (alignment 4)
    Address: 0x0100a110


** Section #77 '.option_setting_dualsel.endof' (SHT_NOBITS) [SHF_ALLOC + SHF_WRITE]
    Size   : 0 bytes (alignment 4)
    Address: 0x0100a110


** Section #78 '__OPTION_SETTING_DUALSEL_end' (SHT_NOBITS) [SHF_ALLOC + SHF_WRITE]
    Size   : 0 bytes (alignment 4)
    Address: 0x0100a110


** Section #79 '__OPTION_SETTING_OFS1_start' (SHT_NOBITS) [SHF_ALLOC + SHF_WRITE]
    Size   : 0 bytes (alignment 4)
    Address: 0x0100a180


** Section #80 '__OPTION_SETTING_OFS1_init' (SHT_NOBITS) [SHF_ALLOC + SHF_WRITE]
    Size   : 0 bytes (alignment 4)
    Address: 0x0100a180


** Section #81 '__ddsc_OPTION_SETTING_OFS1_START' (SHT_NOBITS) [SHF_ALLOC + SHF_WRITE]
    Size   : 0 bytes (alignment 4)
    Address: 0x0100a180


** Section #82 '.option_setting_ofs1.startof' (SHT_NOBITS) [SHF_ALLOC + SHF_WRITE]
    Size   : 0 bytes (alignment 4)
    Address: 0x0100a180


** Section #83 '__ddsc_OPTION_SETTING_OFS1_END' (SHT_NOBITS) [SHF_ALLOC + SHF_WRITE]
    Size   : 0 bytes (alignment 4)
    Address: 0x0100a180


** Section #84 '.option_setting_ofs1.endof' (SHT_NOBITS) [SHF_ALLOC + SHF_WRITE]
    Size   : 0 bytes (alignment 4)
    Address: 0x0100a180


** Section #85 '__OPTION_SETTING_OFS1_end' (SHT_NOBITS) [SHF_ALLOC + SHF_WRITE]
    Size   : 0 bytes (alignment 4)
    Address: 0x0100a180


** Section #86 '__OPTION_SETTING_BANKSEL_start' (SHT_NOBITS) [SHF_ALLOC + SHF_WRITE]
    Size   : 0 bytes (alignment 4)
    Address: 0x0100a190


** Section #87 '__OPTION_SETTING_BANKSEL_init' (SHT_NOBITS) [SHF_ALLOC + SHF_WRITE]
    Size   : 0 bytes (alignment 4)
    Address: 0x0100a190


** Section #88 '__ddsc_OPTION_SETTING_BANKSEL_START' (SHT_NOBITS) [SHF_ALLOC + SHF_WRITE]
    Size   : 0 bytes (alignment 4)
    Address: 0x0100a190


** Section #89 '.option_setting_banksel.startof' (SHT_NOBITS) [SHF_ALLOC + SHF_WRITE]
    Size   : 0 bytes (alignment 4)
    Address: 0x0100a190


** Section #90 '__ddsc_OPTION_SETTING_BANKSEL_END' (SHT_NOBITS) [SHF_ALLOC + SHF_WRITE]
    Size   : 0 bytes (alignment 4)
    Address: 0x0100a190


** Section #91 '.option_setting_banksel.endof' (SHT_NOBITS) [SHF_ALLOC + SHF_WRITE]
    Size   : 0 bytes (alignment 4)
    Address: 0x0100a190


** Section #92 '__OPTION_SETTING_BANKSEL_end' (SHT_NOBITS) [SHF_ALLOC + SHF_WRITE]
    Size   : 0 bytes (alignment 4)
    Address: 0x0100a190


** Section #93 '__OPTION_SETTING_BPS_start' (SHT_NOBITS) [SHF_ALLOC + SHF_WRITE]
    Size   : 0 bytes (alignment 4)
    Address: 0x0100a1c0


** Section #94 '__OPTION_SETTING_BPS_init' (SHT_NOBITS) [SHF_ALLOC + SHF_WRITE]
    Size   : 0 bytes (alignment 4)
    Address: 0x0100a1c0


** Section #95 '__ddsc_OPTION_SETTING_BPS_START' (SHT_NOBITS) [SHF_ALLOC + SHF_WRITE]
    Size   : 0 bytes (alignment 4)
    Address: 0x0100a1c0


** Section #96 '.option_setting_bps.startof' (SHT_NOBITS) [SHF_ALLOC + SHF_WRITE]
    Size   : 0 bytes (alignment 4)
    Address: 0x0100a1c0


** Section #97 '__ddsc_OPTION_SETTING_BPS_END' (SHT_NOBITS) [SHF_ALLOC + SHF_WRITE]
    Size   : 0 bytes (alignment 4)
    Address: 0x0100a1c0


** Section #98 '.option_setting_bps.endof' (SHT_NOBITS) [SHF_ALLOC + SHF_WRITE]
    Size   : 0 bytes (alignment 4)
    Address: 0x0100a1c0


** Section #99 '__OPTION_SETTING_BPS_end' (SHT_NOBITS) [SHF_ALLOC + SHF_WRITE]
    Size   : 0 bytes (alignment 4)
    Address: 0x0100a1c0


** Section #100 '__OPTION_SETTING_PBPS_start' (SHT_NOBITS) [SHF_ALLOC + SHF_WRITE]
    Size   : 0 bytes (alignment 4)
    Address: 0x0100a1e0


** Section #101 '__OPTION_SETTING_PBPS_init' (SHT_NOBITS) [SHF_ALLOC + SHF_WRITE]
    Size   : 0 bytes (alignment 4)
    Address: 0x0100a1e0


** Section #102 '__ddsc_OPTION_SETTING_PBPS_START' (SHT_NOBITS) [SHF_ALLOC + SHF_WRITE]
    Size   : 0 bytes (alignment 4)
    Address: 0x0100a1e0


** Section #103 '.option_setting_pbps.startof' (SHT_NOBITS) [SHF_ALLOC + SHF_WRITE]
    Size   : 0 bytes (alignment 4)
    Address: 0x0100a1e0


** Section #104 '__ddsc_OPTION_SETTING_PBPS_END' (SHT_NOBITS) [SHF_ALLOC + SHF_WRITE]
    Size   : 0 bytes (alignment 4)
    Address: 0x0100a1e0


** Section #105 '.option_setting_pbps.endof' (SHT_NOBITS) [SHF_ALLOC + SHF_WRITE]
    Size   : 0 bytes (alignment 4)
    Address: 0x0100a1e0


** Section #106 '__OPTION_SETTING_PBPS_end' (SHT_NOBITS) [SHF_ALLOC + SHF_WRITE]
    Size   : 0 bytes (alignment 4)
    Address: 0x0100a1e0


** Section #107 '__OPTION_SETTING_OFS1_SEC_start' (SHT_NOBITS) [SHF_ALLOC + SHF_WRITE]
    Size   : 0 bytes (alignment 4)
    Address: 0x0100a200


** Section #108 '__OPTION_SETTING_OFS1_SEC_init' (SHT_NOBITS) [SHF_ALLOC + SHF_WRITE]
    Size   : 0 bytes (alignment 4)
    Address: 0x0100a200


** Section #109 '__ddsc_OPTION_SETTING_OFS1_SEC_START' (SHT_NOBITS) [SHF_ALLOC + SHF_WRITE]
    Size   : 0 bytes (alignment 4)
    Address: 0x0100a200


** Section #110 '.option_setting_ofs1_sec.startof' (SHT_NOBITS) [SHF_ALLOC + SHF_WRITE]
    Size   : 0 bytes (alignment 4)
    Address: 0x0100a200


** Section #111 '__option_setting_ofs1_sec_reg' (SHT_PROGBITS) [SHF_ALLOC]
    Size   : 4 bytes (alignment 4)
    Address: 0x0100a200


** Section #112 '__ddsc_OPTION_SETTING_OFS1_SEC_END' (SHT_NOBITS) [SHF_ALLOC + SHF_WRITE]
    Size   : 0 bytes (alignment 4)
    Address: 0x0100a204


** Section #113 '.option_setting_ofs1_sec.endof' (SHT_NOBITS) [SHF_ALLOC + SHF_WRITE]
    Size   : 0 bytes (alignment 4)
    Address: 0x0100a204


** Section #114 '__OPTION_SETTING_OFS1_SEC_end' (SHT_NOBITS) [SHF_ALLOC + SHF_WRITE]
    Size   : 0 bytes (alignment 4)
    Address: 0x0100a204


** Section #115 '__OPTION_SETTING_BANKSEL_SEC_start' (SHT_NOBITS) [SHF_ALLOC + SHF_WRITE]
    Size   : 0 bytes (alignment 4)
    Address: 0x0100a210


** Section #116 '__OPTION_SETTING_BANKSEL_SEC_init' (SHT_NOBITS) [SHF_ALLOC + SHF_WRITE]
    Size   : 0 bytes (alignment 4)
    Address: 0x0100a210


** Section #117 '__ddsc_OPTION_SETTING_BANKSEL_SEC_START' (SHT_NOBITS) [SHF_ALLOC + SHF_WRITE]
    Size   : 0 bytes (alignment 4)
    Address: 0x0100a210


** Section #118 '.option_setting_banksel_sec.startof' (SHT_NOBITS) [SHF_ALLOC + SHF_WRITE]
    Size   : 0 bytes (alignment 4)
    Address: 0x0100a210


** Section #119 '__ddsc_OPTION_SETTING_BANKSEL_SEC_END' (SHT_NOBITS) [SHF_ALLOC + SHF_WRITE]
    Size   : 0 bytes (alignment 4)
    Address: 0x0100a210


** Section #120 '.option_setting_banksel_sec.endof' (SHT_NOBITS) [SHF_ALLOC + SHF_WRITE]
    Size   : 0 bytes (alignment 4)
    Address: 0x0100a210


** Section #121 '__OPTION_SETTING_BANKSEL_SEC_end' (SHT_NOBITS) [SHF_ALLOC + SHF_WRITE]
    Size   : 0 bytes (alignment 4)
    Address: 0x0100a210


** Section #122 '__OPTION_SETTING_BPS_SEC_start' (SHT_NOBITS) [SHF_ALLOC + SHF_WRITE]
    Size   : 0 bytes (alignment 4)
    Address: 0x0100a240


** Section #123 '__OPTION_SETTING_BPS_SEC_init' (SHT_NOBITS) [SHF_ALLOC + SHF_WRITE]
    Size   : 0 bytes (alignment 4)
    Address: 0x0100a240


** Section #124 '__ddsc_OPTION_SETTING_BPS_SEC_START' (SHT_NOBITS) [SHF_ALLOC + SHF_WRITE]
    Size   : 0 bytes (alignment 4)
    Address: 0x0100a240


** Section #125 '.option_setting_bps_sec.startof' (SHT_NOBITS) [SHF_ALLOC + SHF_WRITE]
    Size   : 0 bytes (alignment 4)
    Address: 0x0100a240


** Section #126 '__ddsc_OPTION_SETTING_BPS_SEC_END' (SHT_NOBITS) [SHF_ALLOC + SHF_WRITE]
    Size   : 0 bytes (alignment 4)
    Address: 0x0100a240


** Section #127 '.option_setting_bps_sec.endof' (SHT_NOBITS) [SHF_ALLOC + SHF_WRITE]
    Size   : 0 bytes (alignment 4)
    Address: 0x0100a240


** Section #128 '__OPTION_SETTING_BPS_SEC_end' (SHT_NOBITS) [SHF_ALLOC + SHF_WRITE]
    Size   : 0 bytes (alignment 4)
    Address: 0x0100a240


** Section #129 '__OPTION_SETTING_PBPS_SEC_start' (SHT_NOBITS) [SHF_ALLOC + SHF_WRITE]
    Size   : 0 bytes (alignment 4)
    Address: 0x0100a260


** Section #130 '__OPTION_SETTING_PBPS_SEC_init' (SHT_NOBITS) [SHF_ALLOC + SHF_WRITE]
    Size   : 0 bytes (alignment 4)
    Address: 0x0100a260


** Section #131 '__ddsc_OPTION_SETTING_PBPS_SEC_START' (SHT_NOBITS) [SHF_ALLOC + SHF_WRITE]
    Size   : 0 bytes (alignment 4)
    Address: 0x0100a260


** Section #132 '.option_setting_pbps_sec.startof' (SHT_NOBITS) [SHF_ALLOC + SHF_WRITE]
    Size   : 0 bytes (alignment 4)
    Address: 0x0100a260


** Section #133 '__ddsc_OPTION_SETTING_PBPS_SEC_END' (SHT_NOBITS) [SHF_ALLOC + SHF_WRITE]
    Size   : 0 bytes (alignment 4)
    Address: 0x0100a260


** Section #134 '.option_setting_pbps_sec.endof' (SHT_NOBITS) [SHF_ALLOC + SHF_WRITE]
    Size   : 0 bytes (alignment 4)
    Address: 0x0100a260


** Section #135 '__OPTION_SETTING_PBPS_SEC_end' (SHT_NOBITS) [SHF_ALLOC + SHF_WRITE]
    Size   : 0 bytes (alignment 4)
    Address: 0x0100a260


** Section #136 '__OPTION_SETTING_OFS1_SEL_start' (SHT_NOBITS) [SHF_ALLOC + SHF_WRITE]
    Size   : 0 bytes (alignment 4)
    Address: 0x0100a280


** Section #137 '__OPTION_SETTING_OFS1_SEL_init' (SHT_NOBITS) [SHF_ALLOC + SHF_WRITE]
    Size   : 0 bytes (alignment 4)
    Address: 0x0100a280


** Section #138 '__ddsc_OPTION_SETTING_OFS1_SEL_START' (SHT_NOBITS) [SHF_ALLOC + SHF_WRITE]
    Size   : 0 bytes (alignment 4)
    Address: 0x0100a280


** Section #139 '.option_setting_ofs1_sel.startof' (SHT_NOBITS) [SHF_ALLOC + SHF_WRITE]
    Size   : 0 bytes (alignment 4)
    Address: 0x0100a280


** Section #140 '__option_setting_ofs1_sel_reg' (SHT_PROGBITS) [SHF_ALLOC]
    Size   : 4 bytes (alignment 4)
    Address: 0x0100a280


** Section #141 '__ddsc_OPTION_SETTING_OFS1_SEL_END' (SHT_NOBITS) [SHF_ALLOC + SHF_WRITE]
    Size   : 0 bytes (alignment 4)
    Address: 0x0100a284


** Section #142 '.option_setting_ofs1_sel.endof' (SHT_NOBITS) [SHF_ALLOC + SHF_WRITE]
    Size   : 0 bytes (alignment 4)
    Address: 0x0100a284


** Section #143 '__OPTION_SETTING_OFS1_SEL_end' (SHT_NOBITS) [SHF_ALLOC + SHF_WRITE]
    Size   : 0 bytes (alignment 4)
    Address: 0x0100a284


** Section #144 '__OPTION_SETTING_BANKSEL_SEL_start' (SHT_NOBITS) [SHF_ALLOC + SHF_WRITE]
    Size   : 0 bytes (alignment 4)
    Address: 0x0100a290


** Section #145 '__OPTION_SETTING_BANKSEL_SEL_init' (SHT_NOBITS) [SHF_ALLOC + SHF_WRITE]
    Size   : 0 bytes (alignment 4)
    Address: 0x0100a290


** Section #146 '__ddsc_OPTION_SETTING_BANKSEL_SEL_START' (SHT_NOBITS) [SHF_ALLOC + SHF_WRITE]
    Size   : 0 bytes (alignment 4)
    Address: 0x0100a290


** Section #147 '.option_setting_banksel_sel.startof' (SHT_NOBITS) [SHF_ALLOC + SHF_WRITE]
    Size   : 0 bytes (alignment 4)
    Address: 0x0100a290


** Section #148 '__ddsc_OPTION_SETTING_BANKSEL_SEL_END' (SHT_NOBITS) [SHF_ALLOC + SHF_WRITE]
    Size   : 0 bytes (alignment 4)
    Address: 0x0100a290


** Section #149 '.option_setting_banksel_sel.endof' (SHT_NOBITS) [SHF_ALLOC + SHF_WRITE]
    Size   : 0 bytes (alignment 4)
    Address: 0x0100a290


** Section #150 '__OPTION_SETTING_BANKSEL_SEL_end' (SHT_NOBITS) [SHF_ALLOC + SHF_WRITE]
    Size   : 0 bytes (alignment 4)
    Address: 0x0100a290


** Section #151 '__OPTION_SETTING_BPS_SEL_start' (SHT_NOBITS) [SHF_ALLOC + SHF_WRITE]
    Size   : 0 bytes (alignment 4)
    Address: 0x0100a2c0


** Section #152 '__OPTION_SETTING_BPS_SEL_init' (SHT_NOBITS) [SHF_ALLOC + SHF_WRITE]
    Size   : 0 bytes (alignment 4)
    Address: 0x0100a2c0


** Section #153 '__ddsc_OPTION_SETTING_BPS_SEL_START' (SHT_NOBITS) [SHF_ALLOC + SHF_WRITE]
    Size   : 0 bytes (alignment 4)
    Address: 0x0100a2c0


** Section #154 '.option_setting_bps_sel.startof' (SHT_NOBITS) [SHF_ALLOC + SHF_WRITE]
    Size   : 0 bytes (alignment 4)
    Address: 0x0100a2c0


** Section #155 '__ddsc_OPTION_SETTING_BPS_SEL_END' (SHT_NOBITS) [SHF_ALLOC + SHF_WRITE]
    Size   : 0 bytes (alignment 4)
    Address: 0x0100a2c0


** Section #156 '.option_setting_bps_sel.endof' (SHT_NOBITS) [SHF_ALLOC + SHF_WRITE]
    Size   : 0 bytes (alignment 4)
    Address: 0x0100a2c0


** Section #157 '__OPTION_SETTING_BPS_SEL_end' (SHT_NOBITS) [SHF_ALLOC + SHF_WRITE]
    Size   : 0 bytes (alignment 4)
    Address: 0x0100a2c0


** Section #158 '.debug_abbrev' (SHT_PROGBITS)
    Size   : 13136 bytes


** Section #159 '.debug_frame' (SHT_PROGBITS)
    Size   : 5832 bytes


** Section #160 '.debug_info' (SHT_PROGBITS)
    Size   : 294876 bytes


** Section #161 '.debug_line' (SHT_PROGBITS)
    Size   : 35986 bytes


** Section #162 '.debug_loc' (SHT_PROGBITS)
    Size   : 40610 bytes


** Section #163 '.debug_ranges' (SHT_PROGBITS)
    Size   : 5224 bytes


** Section #164 '.debug_str' (SHT_PROGBITS)
    Size   : 272533 bytes


** Section #165 '.symtab' (SHT_SYMTAB)
    Size   : 10144 bytes (alignment 4)
    String table #166 '.strtab'
    Last local symbol no. 322


** Section #166 '.strtab' (SHT_STRTAB)
    Size   : 11724 bytes


** Section #167 '.note' (SHT_NOTE)
    Size   : 644 bytes (alignment 4)


** Section #168 '.comment' (SHT_PROGBITS)
    Size   : 1456 bytes


** Section #169 '.shstrtab' (SHT_STRTAB)
    Size   : 5024 bytes


address     size       variable name                            type
0x000040a0  0x20       g_i2c_master_on_iic                      const i2c_master_api_t
0x000040a0  0x4        g_i2c_master_on_iic.open                 pointer to function 
0x000040a4  0x4        g_i2c_master_on_iic.read                 pointer to function 
0x000040a8  0x4        g_i2c_master_on_iic.write                pointer to function 
0x000040ac  0x4        g_i2c_master_on_iic.abort                pointer to function 
0x000040b0  0x4        g_i2c_master_on_iic.slaveAddressSet      pointer to function 
0x000040b4  0x4        g_i2c_master_on_iic.callbackSet          pointer to function 
0x000040b8  0x4        g_i2c_master_on_iic.statusGet            pointer to function 
0x000040bc  0x4        g_i2c_master_on_iic.close                pointer to function 

address     size       variable name                            type
0x000040d8  0x44       g_interrupt_event_link_select            array[17] of const bsp_interrupt_event_t

address     size       variable name                            type
0x00000040  0x44       g_vector_table                           array[17] of const fsp_vector_t

address     size       variable name                            type
0x00003f38  0xc        g_bsp_pin_cfg                            const ioport_cfg_t
0x00003f38  0x2      * g_bsp_pin_cfg.number_of_pins             uint16_t
0x00003f3c  0x4        g_bsp_pin_cfg.p_pin_cfg_data             pointer to const ioport_pin_cfg_t
0x00003f40  0x4        g_bsp_pin_cfg.p_extend                   pointer to const unknown Type 

address     size       variable name                            type
0x00003f44  0x108      g_bsp_pin_cfg_data                       array[33] of const ioport_pin_cfg_t

address     size       variable name                            type
0x00000000  0xc        g_timer0                                 const timer_instance_t
0x00000000  0x4        g_timer0.p_ctrl                          pointer to timer_ctrl_t
0x00000004  0x4        g_timer0.p_cfg                           pointer to const timer_cfg_t
0x00000008  0x4        g_timer0.p_api                           pointer to const timer_api_t

address     size       variable name                            type
0x00000000  0x24       g_timer0_cfg                             const timer_cfg_t
0x00000000  0x4        g_timer0_cfg.mode                        timer_mode_t
0x00000004  0x4        g_timer0_cfg.period_counts               uint32_t
0x00000008  0x4        g_timer0_cfg.source_div                  timer_source_div_t
0x0000000c  0x4        g_timer0_cfg.duty_cycle_counts           uint32_t
0x00000010  0x1        g_timer0_cfg.channel                     uint8_t
0x00000011  0x1      * g_timer0_cfg.cycle_end_ipl               uint8_t
0x00000014  0x4        g_timer0_cfg.cycle_end_irq               IRQn_Type
0x00000018  0x4        g_timer0_cfg.p_callback                  pointer to function 
0x0000001c  0x4        g_timer0_cfg.p_context                   pointer to unknown Type 
0x00000020  0x4        g_timer0_cfg.p_extend                    pointer to const unknown Type 

address     size       variable name                            type
0x00000000  0x20       g_timer0_ctrl                            gpt_instance_ctrl_t
0x00000000  0x4        g_timer0_ctrl.open                       uint32_t
0x00000004  0x4        g_timer0_ctrl.p_cfg                      pointer to const timer_cfg_t
0x00000008  0x4        g_timer0_ctrl.p_reg                      pointer to R_GPT0_Type
0x0000000c  0x4        g_timer0_ctrl.channel_mask               uint32_t
0x00000010  0x4        g_timer0_ctrl.variant                    timer_variant_t
0x00000014  0x4        g_timer0_ctrl.p_callback                 pointer to function 
0x00000018  0x4        g_timer0_ctrl.p_callback_memory          pointer to timer_callback_args_t
0x0000001c  0x4        g_timer0_ctrl.p_context                  pointer to unknown Type 

address     size       variable name                            type
0x00000000  0x80       g_timer0_extend                          const gpt_extended_cfg_t
0x00000000  0x8        g_timer0_extend.gtioca                   gpt_output_pin_t
0x00000000  0x1      * g_timer0_extend.gtioca.output_enabled    _Bool
0x00000004  0x4        g_timer0_extend.gtioca.stop_level        gpt_pin_level_t
0x00000008  0x8        g_timer0_extend.gtiocb                   gpt_output_pin_t
0x00000008  0x1      * g_timer0_extend.gtiocb.output_enabled    _Bool
0x0000000c  0x4        g_timer0_extend.gtiocb.stop_level        gpt_pin_level_t
0x00000010  0x4        g_timer0_extend.start_source             gpt_source_t
0x00000014  0x4        g_timer0_extend.stop_source              gpt_source_t
0x00000018  0x4        g_timer0_extend.clear_source             gpt_source_t
0x0000001c  0x4        g_timer0_extend.capture_a_source         gpt_source_t
0x00000020  0x4        g_timer0_extend.capture_b_source         gpt_source_t
0x00000024  0x4        g_timer0_extend.count_up_source          gpt_source_t
0x00000028  0x4        g_timer0_extend.count_down_source        gpt_source_t
0x0000002c  0x4        g_timer0_extend.capture_filter_gtioca    gpt_capture_filter_t
0x00000030  0x4        g_timer0_extend.capture_filter_gtiocb    gpt_capture_filter_t
0x00000034  0x1        g_timer0_extend.capture_a_ipl            uint8_t
0x00000035  0x1        g_timer0_extend.capture_b_ipl            uint8_t
0x00000036  0x1        g_timer0_extend.compare_match_c_ipl      uint8_t
0x00000037  0x1        g_timer0_extend.compare_match_d_ipl      uint8_t
0x00000038  0x1        g_timer0_extend.compare_match_e_ipl      uint8_t
0x00000039  0x1      * g_timer0_extend.compare_match_f_ipl      uint8_t
0x0000003c  0x4        g_timer0_extend.capture_a_irq            IRQn_Type
0x00000040  0x4        g_timer0_extend.capture_b_irq            IRQn_Type
0x00000044  0x4        g_timer0_extend.compare_match_c_irq      IRQn_Type
0x00000048  0x4        g_timer0_extend.compare_match_d_irq      IRQn_Type
0x0000004c  0x4        g_timer0_extend.compare_match_e_irq      IRQn_Type
0x00000050  0x4        g_timer0_extend.compare_match_f_irq      IRQn_Type
0x00000054  0x18       g_timer0_extend.compare_match_value      array[6] of uint32_t
0x0000006c  0x1      * g_timer0_extend.compare_match_status     uint8_t
0x00000070  0x4        g_timer0_extend.p_pwm_cfg                pointer to const gpt_extended_pwm_cfg_t
0x00000074  0x4        g_timer0_extend.gtior_setting            gpt_gtior_setting_t
0x00000074  0x4        g_timer0_extend.gtior_setting.<anonymous> anonymous
0x00000074  0x4        g_timer0_extend.gtior_setting.<anonymous>.gtior uint32_t
0x00000074  0x4      * g_timer0_extend.gtior_setting.<anonymous>.gtior_b anonymous
0x00000074  0x4(0:5) * g_timer0_extend.gtior_setting.<anonymous>.gtior_b.gtioa uint32_t
0x00000074  0x4(0:1) * g_timer0_extend.gtior_setting.<anonymous>.gtior_b.oadflt uint32_t
0x00000074  0x4(0:1) * g_timer0_extend.gtior_setting.<anonymous>.gtior_b.oahld uint32_t
0x00000074  0x4(0:1) * g_timer0_extend.gtior_setting.<anonymous>.gtior_b.oae uint32_t
0x00000074  0x4(0:2) * g_timer0_extend.gtior_setting.<anonymous>.gtior_b.oadf uint32_t
0x00000074  0x4(0:1) * g_timer0_extend.gtior_setting.<anonymous>.gtior_b.nfaen uint32_t
0x00000074  0x4(0:2) * g_timer0_extend.gtior_setting.<anonymous>.gtior_b.nfcsa uint32_t
0x00000074  0x4(0:5) * g_timer0_extend.gtior_setting.<anonymous>.gtior_b.gtiob uint32_t
0x00000074  0x4(0:1) * g_timer0_extend.gtior_setting.<anonymous>.gtior_b.obdflt uint32_t
0x00000074  0x4(0:1) * g_timer0_extend.gtior_setting.<anonymous>.gtior_b.obhld uint32_t
0x00000074  0x4(0:1) * g_timer0_extend.gtior_setting.<anonymous>.gtior_b.obe uint32_t
0x00000074  0x4(0:2) * g_timer0_extend.gtior_setting.<anonymous>.gtior_b.obdf uint32_t
0x00000074  0x4(0:1) * g_timer0_extend.gtior_setting.<anonymous>.gtior_b.nfben uint32_t
0x00000074  0x4(0:2)   g_timer0_extend.gtior_setting.<anonymous>.gtior_b.nfcsb uint32_t
0x00000078  0x4        g_timer0_extend.gtioca_polarity          gpt_gtioc_polarity_t
0x0000007c  0x4        g_timer0_extend.gtiocb_polarity          gpt_gtioc_polarity_t

address     size       variable name                            type
0x00000000  0xc        g_timer1                                 const timer_instance_t
0x00000000  0x4        g_timer1.p_ctrl                          pointer to timer_ctrl_t
0x00000004  0x4        g_timer1.p_cfg                           pointer to const timer_cfg_t
0x00000008  0x4        g_timer1.p_api                           pointer to const timer_api_t

address     size       variable name                            type
0x00000000  0x24       g_timer1_cfg                             const timer_cfg_t
0x00000000  0x4        g_timer1_cfg.mode                        timer_mode_t
0x00000004  0x4        g_timer1_cfg.period_counts               uint32_t
0x00000008  0x4        g_timer1_cfg.source_div                  timer_source_div_t
0x0000000c  0x4        g_timer1_cfg.duty_cycle_counts           uint32_t
0x00000010  0x1        g_timer1_cfg.channel                     uint8_t
0x00000011  0x1      * g_timer1_cfg.cycle_end_ipl               uint8_t
0x00000014  0x4        g_timer1_cfg.cycle_end_irq               IRQn_Type
0x00000018  0x4        g_timer1_cfg.p_callback                  pointer to function 
0x0000001c  0x4        g_timer1_cfg.p_context                   pointer to unknown Type 
0x00000020  0x4        g_timer1_cfg.p_extend                    pointer to const unknown Type 

address     size       variable name                            type
0x00000000  0x20       g_timer1_ctrl                            gpt_instance_ctrl_t
0x00000000  0x4        g_timer1_ctrl.open                       uint32_t
0x00000004  0x4        g_timer1_ctrl.p_cfg                      pointer to const timer_cfg_t
0x00000008  0x4        g_timer1_ctrl.p_reg                      pointer to R_GPT0_Type
0x0000000c  0x4        g_timer1_ctrl.channel_mask               uint32_t
0x00000010  0x4        g_timer1_ctrl.variant                    timer_variant_t
0x00000014  0x4        g_timer1_ctrl.p_callback                 pointer to function 
0x00000018  0x4        g_timer1_ctrl.p_callback_memory          pointer to timer_callback_args_t
0x0000001c  0x4        g_timer1_ctrl.p_context                  pointer to unknown Type 

address     size       variable name                            type
0x00000000  0x80       g_timer1_extend                          const gpt_extended_cfg_t
0x00000000  0x8        g_timer1_extend.gtioca                   gpt_output_pin_t
0x00000000  0x1      * g_timer1_extend.gtioca.output_enabled    _Bool
0x00000004  0x4        g_timer1_extend.gtioca.stop_level        gpt_pin_level_t
0x00000008  0x8        g_timer1_extend.gtiocb                   gpt_output_pin_t
0x00000008  0x1      * g_timer1_extend.gtiocb.output_enabled    _Bool
0x0000000c  0x4        g_timer1_extend.gtiocb.stop_level        gpt_pin_level_t
0x00000010  0x4        g_timer1_extend.start_source             gpt_source_t
0x00000014  0x4        g_timer1_extend.stop_source              gpt_source_t
0x00000018  0x4        g_timer1_extend.clear_source             gpt_source_t
0x0000001c  0x4        g_timer1_extend.capture_a_source         gpt_source_t
0x00000020  0x4        g_timer1_extend.capture_b_source         gpt_source_t
0x00000024  0x4        g_timer1_extend.count_up_source          gpt_source_t
0x00000028  0x4        g_timer1_extend.count_down_source        gpt_source_t
0x0000002c  0x4        g_timer1_extend.capture_filter_gtioca    gpt_capture_filter_t
0x00000030  0x4        g_timer1_extend.capture_filter_gtiocb    gpt_capture_filter_t
0x00000034  0x1        g_timer1_extend.capture_a_ipl            uint8_t
0x00000035  0x1        g_timer1_extend.capture_b_ipl            uint8_t
0x00000036  0x1        g_timer1_extend.compare_match_c_ipl      uint8_t
0x00000037  0x1        g_timer1_extend.compare_match_d_ipl      uint8_t
0x00000038  0x1        g_timer1_extend.compare_match_e_ipl      uint8_t
0x00000039  0x1      * g_timer1_extend.compare_match_f_ipl      uint8_t
0x0000003c  0x4        g_timer1_extend.capture_a_irq            IRQn_Type
0x00000040  0x4        g_timer1_extend.capture_b_irq            IRQn_Type
0x00000044  0x4        g_timer1_extend.compare_match_c_irq      IRQn_Type
0x00000048  0x4        g_timer1_extend.compare_match_d_irq      IRQn_Type
0x0000004c  0x4        g_timer1_extend.compare_match_e_irq      IRQn_Type
0x00000050  0x4        g_timer1_extend.compare_match_f_irq      IRQn_Type
0x00000054  0x18       g_timer1_extend.compare_match_value      array[6] of uint32_t
0x0000006c  0x1      * g_timer1_extend.compare_match_status     uint8_t
0x00000070  0x4        g_timer1_extend.p_pwm_cfg                pointer to const gpt_extended_pwm_cfg_t
0x00000074  0x4        g_timer1_extend.gtior_setting            gpt_gtior_setting_t
0x00000074  0x4        g_timer1_extend.gtior_setting.<anonymous> anonymous
0x00000074  0x4        g_timer1_extend.gtior_setting.<anonymous>.gtior uint32_t
0x00000074  0x4      * g_timer1_extend.gtior_setting.<anonymous>.gtior_b anonymous
0x00000074  0x4(0:5) * g_timer1_extend.gtior_setting.<anonymous>.gtior_b.gtioa uint32_t
0x00000074  0x4(0:1) * g_timer1_extend.gtior_setting.<anonymous>.gtior_b.oadflt uint32_t
0x00000074  0x4(0:1) * g_timer1_extend.gtior_setting.<anonymous>.gtior_b.oahld uint32_t
0x00000074  0x4(0:1) * g_timer1_extend.gtior_setting.<anonymous>.gtior_b.oae uint32_t
0x00000074  0x4(0:2) * g_timer1_extend.gtior_setting.<anonymous>.gtior_b.oadf uint32_t
0x00000074  0x4(0:1) * g_timer1_extend.gtior_setting.<anonymous>.gtior_b.nfaen uint32_t
0x00000074  0x4(0:2) * g_timer1_extend.gtior_setting.<anonymous>.gtior_b.nfcsa uint32_t
0x00000074  0x4(0:5) * g_timer1_extend.gtior_setting.<anonymous>.gtior_b.gtiob uint32_t
0x00000074  0x4(0:1) * g_timer1_extend.gtior_setting.<anonymous>.gtior_b.obdflt uint32_t
0x00000074  0x4(0:1) * g_timer1_extend.gtior_setting.<anonymous>.gtior_b.obhld uint32_t
0x00000074  0x4(0:1) * g_timer1_extend.gtior_setting.<anonymous>.gtior_b.obe uint32_t
0x00000074  0x4(0:2) * g_timer1_extend.gtior_setting.<anonymous>.gtior_b.obdf uint32_t
0x00000074  0x4(0:1) * g_timer1_extend.gtior_setting.<anonymous>.gtior_b.nfben uint32_t
0x00000074  0x4(0:2)   g_timer1_extend.gtior_setting.<anonymous>.gtior_b.nfcsb uint32_t
0x00000078  0x4        g_timer1_extend.gtioca_polarity          gpt_gtioc_polarity_t
0x0000007c  0x4        g_timer1_extend.gtiocb_polarity          gpt_gtioc_polarity_t

address     size       variable name                            type
0x00000000  0xc        g_timer4                                 const timer_instance_t
0x00000000  0x4        g_timer4.p_ctrl                          pointer to timer_ctrl_t
0x00000004  0x4        g_timer4.p_cfg                           pointer to const timer_cfg_t
0x00000008  0x4        g_timer4.p_api                           pointer to const timer_api_t

address     size       variable name                            type
0x00000000  0x24       g_timer4_cfg                             const timer_cfg_t
0x00000000  0x4        g_timer4_cfg.mode                        timer_mode_t
0x00000004  0x4        g_timer4_cfg.period_counts               uint32_t
0x00000008  0x4        g_timer4_cfg.source_div                  timer_source_div_t
0x0000000c  0x4        g_timer4_cfg.duty_cycle_counts           uint32_t
0x00000010  0x1        g_timer4_cfg.channel                     uint8_t
0x00000011  0x1      * g_timer4_cfg.cycle_end_ipl               uint8_t
0x00000014  0x4        g_timer4_cfg.cycle_end_irq               IRQn_Type
0x00000018  0x4        g_timer4_cfg.p_callback                  pointer to function 
0x0000001c  0x4        g_timer4_cfg.p_context                   pointer to unknown Type 
0x00000020  0x4        g_timer4_cfg.p_extend                    pointer to const unknown Type 

address     size       variable name                            type
0x00000000  0x20       g_timer4_ctrl                            gpt_instance_ctrl_t
0x00000000  0x4        g_timer4_ctrl.open                       uint32_t
0x00000004  0x4        g_timer4_ctrl.p_cfg                      pointer to const timer_cfg_t
0x00000008  0x4        g_timer4_ctrl.p_reg                      pointer to R_GPT0_Type
0x0000000c  0x4        g_timer4_ctrl.channel_mask               uint32_t
0x00000010  0x4        g_timer4_ctrl.variant                    timer_variant_t
0x00000014  0x4        g_timer4_ctrl.p_callback                 pointer to function 
0x00000018  0x4        g_timer4_ctrl.p_callback_memory          pointer to timer_callback_args_t
0x0000001c  0x4        g_timer4_ctrl.p_context                  pointer to unknown Type 

address     size       variable name                            type
0x00000000  0x80       g_timer4_extend                          const gpt_extended_cfg_t
0x00000000  0x8        g_timer4_extend.gtioca                   gpt_output_pin_t
0x00000000  0x1      * g_timer4_extend.gtioca.output_enabled    _Bool
0x00000004  0x4        g_timer4_extend.gtioca.stop_level        gpt_pin_level_t
0x00000008  0x8        g_timer4_extend.gtiocb                   gpt_output_pin_t
0x00000008  0x1      * g_timer4_extend.gtiocb.output_enabled    _Bool
0x0000000c  0x4        g_timer4_extend.gtiocb.stop_level        gpt_pin_level_t
0x00000010  0x4        g_timer4_extend.start_source             gpt_source_t
0x00000014  0x4        g_timer4_extend.stop_source              gpt_source_t
0x00000018  0x4        g_timer4_extend.clear_source             gpt_source_t
0x0000001c  0x4        g_timer4_extend.capture_a_source         gpt_source_t
0x00000020  0x4        g_timer4_extend.capture_b_source         gpt_source_t
0x00000024  0x4        g_timer4_extend.count_up_source          gpt_source_t
0x00000028  0x4        g_timer4_extend.count_down_source        gpt_source_t
0x0000002c  0x4        g_timer4_extend.capture_filter_gtioca    gpt_capture_filter_t
0x00000030  0x4        g_timer4_extend.capture_filter_gtiocb    gpt_capture_filter_t
0x00000034  0x1        g_timer4_extend.capture_a_ipl            uint8_t
0x00000035  0x1        g_timer4_extend.capture_b_ipl            uint8_t
0x00000036  0x1        g_timer4_extend.compare_match_c_ipl      uint8_t
0x00000037  0x1        g_timer4_extend.compare_match_d_ipl      uint8_t
0x00000038  0x1        g_timer4_extend.compare_match_e_ipl      uint8_t
0x00000039  0x1      * g_timer4_extend.compare_match_f_ipl      uint8_t
0x0000003c  0x4        g_timer4_extend.capture_a_irq            IRQn_Type
0x00000040  0x4        g_timer4_extend.capture_b_irq            IRQn_Type
0x00000044  0x4        g_timer4_extend.compare_match_c_irq      IRQn_Type
0x00000048  0x4        g_timer4_extend.compare_match_d_irq      IRQn_Type
0x0000004c  0x4        g_timer4_extend.compare_match_e_irq      IRQn_Type
0x00000050  0x4        g_timer4_extend.compare_match_f_irq      IRQn_Type
0x00000054  0x18       g_timer4_extend.compare_match_value      array[6] of uint32_t
0x0000006c  0x1      * g_timer4_extend.compare_match_status     uint8_t
0x00000070  0x4        g_timer4_extend.p_pwm_cfg                pointer to const gpt_extended_pwm_cfg_t
0x00000074  0x4        g_timer4_extend.gtior_setting            gpt_gtior_setting_t
0x00000074  0x4        g_timer4_extend.gtior_setting.<anonymous> anonymous
0x00000074  0x4        g_timer4_extend.gtior_setting.<anonymous>.gtior uint32_t
0x00000074  0x4      * g_timer4_extend.gtior_setting.<anonymous>.gtior_b anonymous
0x00000074  0x4(0:5) * g_timer4_extend.gtior_setting.<anonymous>.gtior_b.gtioa uint32_t
0x00000074  0x4(0:1) * g_timer4_extend.gtior_setting.<anonymous>.gtior_b.oadflt uint32_t
0x00000074  0x4(0:1) * g_timer4_extend.gtior_setting.<anonymous>.gtior_b.oahld uint32_t
0x00000074  0x4(0:1) * g_timer4_extend.gtior_setting.<anonymous>.gtior_b.oae uint32_t
0x00000074  0x4(0:2) * g_timer4_extend.gtior_setting.<anonymous>.gtior_b.oadf uint32_t
0x00000074  0x4(0:1) * g_timer4_extend.gtior_setting.<anonymous>.gtior_b.nfaen uint32_t
0x00000074  0x4(0:2) * g_timer4_extend.gtior_setting.<anonymous>.gtior_b.nfcsa uint32_t
0x00000074  0x4(0:5) * g_timer4_extend.gtior_setting.<anonymous>.gtior_b.gtiob uint32_t
0x00000074  0x4(0:1) * g_timer4_extend.gtior_setting.<anonymous>.gtior_b.obdflt uint32_t
0x00000074  0x4(0:1) * g_timer4_extend.gtior_setting.<anonymous>.gtior_b.obhld uint32_t
0x00000074  0x4(0:1) * g_timer4_extend.gtior_setting.<anonymous>.gtior_b.obe uint32_t
0x00000074  0x4(0:2) * g_timer4_extend.gtior_setting.<anonymous>.gtior_b.obdf uint32_t
0x00000074  0x4(0:1) * g_timer4_extend.gtior_setting.<anonymous>.gtior_b.nfben uint32_t
0x00000074  0x4(0:2)   g_timer4_extend.gtior_setting.<anonymous>.gtior_b.nfcsb uint32_t
0x00000078  0x4        g_timer4_extend.gtioca_polarity          gpt_gtioc_polarity_t
0x0000007c  0x4        g_timer4_extend.gtiocb_polarity          gpt_gtioc_polarity_t

address     size       variable name                            type
0x00000000  0xc        g_timer5                                 const timer_instance_t
0x00000000  0x4        g_timer5.p_ctrl                          pointer to timer_ctrl_t
0x00000004  0x4        g_timer5.p_cfg                           pointer to const timer_cfg_t
0x00000008  0x4        g_timer5.p_api                           pointer to const timer_api_t

address     size       variable name                            type
0x00000000  0x24       g_timer5_cfg                             const timer_cfg_t
0x00000000  0x4        g_timer5_cfg.mode                        timer_mode_t
0x00000004  0x4        g_timer5_cfg.period_counts               uint32_t
0x00000008  0x4        g_timer5_cfg.source_div                  timer_source_div_t
0x0000000c  0x4        g_timer5_cfg.duty_cycle_counts           uint32_t
0x00000010  0x1        g_timer5_cfg.channel                     uint8_t
0x00000011  0x1      * g_timer5_cfg.cycle_end_ipl               uint8_t
0x00000014  0x4        g_timer5_cfg.cycle_end_irq               IRQn_Type
0x00000018  0x4        g_timer5_cfg.p_callback                  pointer to function 
0x0000001c  0x4        g_timer5_cfg.p_context                   pointer to unknown Type 
0x00000020  0x4        g_timer5_cfg.p_extend                    pointer to const unknown Type 

address     size       variable name                            type
0x00000000  0x20       g_timer5_ctrl                            gpt_instance_ctrl_t
0x00000000  0x4        g_timer5_ctrl.open                       uint32_t
0x00000004  0x4        g_timer5_ctrl.p_cfg                      pointer to const timer_cfg_t
0x00000008  0x4        g_timer5_ctrl.p_reg                      pointer to R_GPT0_Type
0x0000000c  0x4        g_timer5_ctrl.channel_mask               uint32_t
0x00000010  0x4        g_timer5_ctrl.variant                    timer_variant_t
0x00000014  0x4        g_timer5_ctrl.p_callback                 pointer to function 
0x00000018  0x4        g_timer5_ctrl.p_callback_memory          pointer to timer_callback_args_t
0x0000001c  0x4        g_timer5_ctrl.p_context                  pointer to unknown Type 

address     size       variable name                            type
0x00000000  0x80       g_timer5_extend                          const gpt_extended_cfg_t
0x00000000  0x8        g_timer5_extend.gtioca                   gpt_output_pin_t
0x00000000  0x1      * g_timer5_extend.gtioca.output_enabled    _Bool
0x00000004  0x4        g_timer5_extend.gtioca.stop_level        gpt_pin_level_t
0x00000008  0x8        g_timer5_extend.gtiocb                   gpt_output_pin_t
0x00000008  0x1      * g_timer5_extend.gtiocb.output_enabled    _Bool
0x0000000c  0x4        g_timer5_extend.gtiocb.stop_level        gpt_pin_level_t
0x00000010  0x4        g_timer5_extend.start_source             gpt_source_t
0x00000014  0x4        g_timer5_extend.stop_source              gpt_source_t
0x00000018  0x4        g_timer5_extend.clear_source             gpt_source_t
0x0000001c  0x4        g_timer5_extend.capture_a_source         gpt_source_t
0x00000020  0x4        g_timer5_extend.capture_b_source         gpt_source_t
0x00000024  0x4        g_timer5_extend.count_up_source          gpt_source_t
0x00000028  0x4        g_timer5_extend.count_down_source        gpt_source_t
0x0000002c  0x4        g_timer5_extend.capture_filter_gtioca    gpt_capture_filter_t
0x00000030  0x4        g_timer5_extend.capture_filter_gtiocb    gpt_capture_filter_t
0x00000034  0x1        g_timer5_extend.capture_a_ipl            uint8_t
0x00000035  0x1        g_timer5_extend.capture_b_ipl            uint8_t
0x00000036  0x1        g_timer5_extend.compare_match_c_ipl      uint8_t
0x00000037  0x1        g_timer5_extend.compare_match_d_ipl      uint8_t
0x00000038  0x1        g_timer5_extend.compare_match_e_ipl      uint8_t
0x00000039  0x1      * g_timer5_extend.compare_match_f_ipl      uint8_t
0x0000003c  0x4        g_timer5_extend.capture_a_irq            IRQn_Type
0x00000040  0x4        g_timer5_extend.capture_b_irq            IRQn_Type
0x00000044  0x4        g_timer5_extend.compare_match_c_irq      IRQn_Type
0x00000048  0x4        g_timer5_extend.compare_match_d_irq      IRQn_Type
0x0000004c  0x4        g_timer5_extend.compare_match_e_irq      IRQn_Type
0x00000050  0x4        g_timer5_extend.compare_match_f_irq      IRQn_Type
0x00000054  0x18       g_timer5_extend.compare_match_value      array[6] of uint32_t
0x0000006c  0x1      * g_timer5_extend.compare_match_status     uint8_t
0x00000070  0x4        g_timer5_extend.p_pwm_cfg                pointer to const gpt_extended_pwm_cfg_t
0x00000074  0x4        g_timer5_extend.gtior_setting            gpt_gtior_setting_t
0x00000074  0x4        g_timer5_extend.gtior_setting.<anonymous> anonymous
0x00000074  0x4        g_timer5_extend.gtior_setting.<anonymous>.gtior uint32_t
0x00000074  0x4      * g_timer5_extend.gtior_setting.<anonymous>.gtior_b anonymous
0x00000074  0x4(0:5) * g_timer5_extend.gtior_setting.<anonymous>.gtior_b.gtioa uint32_t
0x00000074  0x4(0:1) * g_timer5_extend.gtior_setting.<anonymous>.gtior_b.oadflt uint32_t
0x00000074  0x4(0:1) * g_timer5_extend.gtior_setting.<anonymous>.gtior_b.oahld uint32_t
0x00000074  0x4(0:1) * g_timer5_extend.gtior_setting.<anonymous>.gtior_b.oae uint32_t
0x00000074  0x4(0:2) * g_timer5_extend.gtior_setting.<anonymous>.gtior_b.oadf uint32_t
0x00000074  0x4(0:1) * g_timer5_extend.gtior_setting.<anonymous>.gtior_b.nfaen uint32_t
0x00000074  0x4(0:2) * g_timer5_extend.gtior_setting.<anonymous>.gtior_b.nfcsa uint32_t
0x00000074  0x4(0:5) * g_timer5_extend.gtior_setting.<anonymous>.gtior_b.gtiob uint32_t
0x00000074  0x4(0:1) * g_timer5_extend.gtior_setting.<anonymous>.gtior_b.obdflt uint32_t
0x00000074  0x4(0:1) * g_timer5_extend.gtior_setting.<anonymous>.gtior_b.obhld uint32_t
0x00000074  0x4(0:1) * g_timer5_extend.gtior_setting.<anonymous>.gtior_b.obe uint32_t
0x00000074  0x4(0:2) * g_timer5_extend.gtior_setting.<anonymous>.gtior_b.obdf uint32_t
0x00000074  0x4(0:1) * g_timer5_extend.gtior_setting.<anonymous>.gtior_b.nfben uint32_t
0x00000074  0x4(0:2)   g_timer5_extend.gtior_setting.<anonymous>.gtior_b.nfcsb uint32_t
0x00000078  0x4        g_timer5_extend.gtioca_polarity          gpt_gtioc_polarity_t
0x0000007c  0x4        g_timer5_extend.gtiocb_polarity          gpt_gtioc_polarity_t

address     size       variable name                            type
0x00000000  0xc        g_timer6                                 const timer_instance_t
0x00000000  0x4        g_timer6.p_ctrl                          pointer to timer_ctrl_t
0x00000004  0x4        g_timer6.p_cfg                           pointer to const timer_cfg_t
0x00000008  0x4        g_timer6.p_api                           pointer to const timer_api_t

address     size       variable name                            type
0x00000000  0x24       g_timer6_cfg                             const timer_cfg_t
0x00000000  0x4        g_timer6_cfg.mode                        timer_mode_t
0x00000004  0x4        g_timer6_cfg.period_counts               uint32_t
0x00000008  0x4        g_timer6_cfg.source_div                  timer_source_div_t
0x0000000c  0x4        g_timer6_cfg.duty_cycle_counts           uint32_t
0x00000010  0x1        g_timer6_cfg.channel                     uint8_t
0x00000011  0x1      * g_timer6_cfg.cycle_end_ipl               uint8_t
0x00000014  0x4        g_timer6_cfg.cycle_end_irq               IRQn_Type
0x00000018  0x4        g_timer6_cfg.p_callback                  pointer to function 
0x0000001c  0x4        g_timer6_cfg.p_context                   pointer to unknown Type 
0x00000020  0x4        g_timer6_cfg.p_extend                    pointer to const unknown Type 

address     size       variable name                            type
0x00000000  0x20       g_timer6_ctrl                            gpt_instance_ctrl_t
0x00000000  0x4        g_timer6_ctrl.open                       uint32_t
0x00000004  0x4        g_timer6_ctrl.p_cfg                      pointer to const timer_cfg_t
0x00000008  0x4        g_timer6_ctrl.p_reg                      pointer to R_GPT0_Type
0x0000000c  0x4        g_timer6_ctrl.channel_mask               uint32_t
0x00000010  0x4        g_timer6_ctrl.variant                    timer_variant_t
0x00000014  0x4        g_timer6_ctrl.p_callback                 pointer to function 
0x00000018  0x4        g_timer6_ctrl.p_callback_memory          pointer to timer_callback_args_t
0x0000001c  0x4        g_timer6_ctrl.p_context                  pointer to unknown Type 

address     size       variable name                            type
0x00000000  0x80       g_timer6_extend                          const gpt_extended_cfg_t
0x00000000  0x8        g_timer6_extend.gtioca                   gpt_output_pin_t
0x00000000  0x1      * g_timer6_extend.gtioca.output_enabled    _Bool
0x00000004  0x4        g_timer6_extend.gtioca.stop_level        gpt_pin_level_t
0x00000008  0x8        g_timer6_extend.gtiocb                   gpt_output_pin_t
0x00000008  0x1      * g_timer6_extend.gtiocb.output_enabled    _Bool
0x0000000c  0x4        g_timer6_extend.gtiocb.stop_level        gpt_pin_level_t
0x00000010  0x4        g_timer6_extend.start_source             gpt_source_t
0x00000014  0x4        g_timer6_extend.stop_source              gpt_source_t
0x00000018  0x4        g_timer6_extend.clear_source             gpt_source_t
0x0000001c  0x4        g_timer6_extend.capture_a_source         gpt_source_t
0x00000020  0x4        g_timer6_extend.capture_b_source         gpt_source_t
0x00000024  0x4        g_timer6_extend.count_up_source          gpt_source_t
0x00000028  0x4        g_timer6_extend.count_down_source        gpt_source_t
0x0000002c  0x4        g_timer6_extend.capture_filter_gtioca    gpt_capture_filter_t
0x00000030  0x4        g_timer6_extend.capture_filter_gtiocb    gpt_capture_filter_t
0x00000034  0x1        g_timer6_extend.capture_a_ipl            uint8_t
0x00000035  0x1        g_timer6_extend.capture_b_ipl            uint8_t
0x00000036  0x1        g_timer6_extend.compare_match_c_ipl      uint8_t
0x00000037  0x1        g_timer6_extend.compare_match_d_ipl      uint8_t
0x00000038  0x1        g_timer6_extend.compare_match_e_ipl      uint8_t
0x00000039  0x1      * g_timer6_extend.compare_match_f_ipl      uint8_t
0x0000003c  0x4        g_timer6_extend.capture_a_irq            IRQn_Type
0x00000040  0x4        g_timer6_extend.capture_b_irq            IRQn_Type
0x00000044  0x4        g_timer6_extend.compare_match_c_irq      IRQn_Type
0x00000048  0x4        g_timer6_extend.compare_match_d_irq      IRQn_Type
0x0000004c  0x4        g_timer6_extend.compare_match_e_irq      IRQn_Type
0x00000050  0x4        g_timer6_extend.compare_match_f_irq      IRQn_Type
0x00000054  0x18       g_timer6_extend.compare_match_value      array[6] of uint32_t
0x0000006c  0x1      * g_timer6_extend.compare_match_status     uint8_t
0x00000070  0x4        g_timer6_extend.p_pwm_cfg                pointer to const gpt_extended_pwm_cfg_t
0x00000074  0x4        g_timer6_extend.gtior_setting            gpt_gtior_setting_t
0x00000074  0x4        g_timer6_extend.gtior_setting.<anonymous> anonymous
0x00000074  0x4        g_timer6_extend.gtior_setting.<anonymous>.gtior uint32_t
0x00000074  0x4      * g_timer6_extend.gtior_setting.<anonymous>.gtior_b anonymous
0x00000074  0x4(0:5) * g_timer6_extend.gtior_setting.<anonymous>.gtior_b.gtioa uint32_t
0x00000074  0x4(0:1) * g_timer6_extend.gtior_setting.<anonymous>.gtior_b.oadflt uint32_t
0x00000074  0x4(0:1) * g_timer6_extend.gtior_setting.<anonymous>.gtior_b.oahld uint32_t
0x00000074  0x4(0:1) * g_timer6_extend.gtior_setting.<anonymous>.gtior_b.oae uint32_t
0x00000074  0x4(0:2) * g_timer6_extend.gtior_setting.<anonymous>.gtior_b.oadf uint32_t
0x00000074  0x4(0:1) * g_timer6_extend.gtior_setting.<anonymous>.gtior_b.nfaen uint32_t
0x00000074  0x4(0:2) * g_timer6_extend.gtior_setting.<anonymous>.gtior_b.nfcsa uint32_t
0x00000074  0x4(0:5) * g_timer6_extend.gtior_setting.<anonymous>.gtior_b.gtiob uint32_t
0x00000074  0x4(0:1) * g_timer6_extend.gtior_setting.<anonymous>.gtior_b.obdflt uint32_t
0x00000074  0x4(0:1) * g_timer6_extend.gtior_setting.<anonymous>.gtior_b.obhld uint32_t
0x00000074  0x4(0:1) * g_timer6_extend.gtior_setting.<anonymous>.gtior_b.obe uint32_t
0x00000074  0x4(0:2) * g_timer6_extend.gtior_setting.<anonymous>.gtior_b.obdf uint32_t
0x00000074  0x4(0:1) * g_timer6_extend.gtior_setting.<anonymous>.gtior_b.nfben uint32_t
0x00000074  0x4(0:2)   g_timer6_extend.gtior_setting.<anonymous>.gtior_b.nfcsb uint32_t
0x00000078  0x4        g_timer6_extend.gtioca_polarity          gpt_gtioc_polarity_t
0x0000007c  0x4        g_timer6_extend.gtiocb_polarity          gpt_gtioc_polarity_t

address     size       variable name                            type
0x00000000  0xc        g_uart5                                  const uart_instance_t
0x00000000  0x4        g_uart5.p_ctrl                           pointer to uart_ctrl_t
0x00000004  0x4        g_uart5.p_cfg                            pointer to const uart_cfg_t
0x00000008  0x4        g_uart5.p_api                            pointer to const uart_api_t

address     size       variable name                            type
0x00000000  0x4        g_uart5_baud_setting                     baud_setting_t
0x00000000  0x1        g_uart5_baud_setting.<anonymous>         anonymous
0x00000000  0x1        g_uart5_baud_setting.<anonymous>.semr_baudrate_bits uint8_t
0x00000000  0x1      * g_uart5_baud_setting.<anonymous>.semr_baudrate_bits_b anonymous
0x00000000  0x1(0:1) * g_uart5_baud_setting.<anonymous>.semr_baudrate_bits_b.brme uint8_t
0x00000000  0x1(0:1) * g_uart5_baud_setting.<anonymous>.semr_baudrate_bits_b.abcse uint8_t
0x00000000  0x1(0:1) * g_uart5_baud_setting.<anonymous>.semr_baudrate_bits_b.abcs uint8_t
0x00000000  0x1(0:1) * g_uart5_baud_setting.<anonymous>.semr_baudrate_bits_b.bgdm uint8_t
0x00000000  0x1(0:2) * g_uart5_baud_setting.cks                 uint8_t
0x00000002  0x1        g_uart5_baud_setting.brr                 uint8_t
0x00000003  0x1        g_uart5_baud_setting.mddr                uint8_t

address     size       variable name                            type
0x00000000  0x44       g_uart5_cfg                              const uart_cfg_t
0x00000000  0x1      * g_uart5_cfg.channel                      uint8_t
0x00000004  0x4        g_uart5_cfg.data_bits                    uart_data_bits_t
0x00000008  0x4        g_uart5_cfg.parity                       uart_parity_t
0x0000000c  0x4        g_uart5_cfg.stop_bits                    uart_stop_bits_t
0x00000010  0x1      * g_uart5_cfg.rxi_ipl                      uint8_t
0x00000014  0x4        g_uart5_cfg.rxi_irq                      IRQn_Type
0x00000018  0x1      * g_uart5_cfg.txi_ipl                      uint8_t
0x0000001c  0x4        g_uart5_cfg.txi_irq                      IRQn_Type
0x00000020  0x1      * g_uart5_cfg.tei_ipl                      uint8_t
0x00000024  0x4        g_uart5_cfg.tei_irq                      IRQn_Type
0x00000028  0x1      * g_uart5_cfg.eri_ipl                      uint8_t
0x0000002c  0x4        g_uart5_cfg.eri_irq                      IRQn_Type
0x00000030  0x4        g_uart5_cfg.p_transfer_rx                pointer to const transfer_instance_t
0x00000034  0x4        g_uart5_cfg.p_transfer_tx                pointer to const transfer_instance_t
0x00000038  0x4        g_uart5_cfg.p_callback                   pointer to function 
0x0000003c  0x4        g_uart5_cfg.p_context                    pointer to unknown Type 
0x00000040  0x4        g_uart5_cfg.p_extend                     pointer to const unknown Type 

address     size       variable name                            type
0x00000000  0x2c       g_uart5_cfg_extend                       const sci_uart_extended_cfg_t
0x00000000  0x4        g_uart5_cfg_extend.clock                 sci_clk_src_t
0x00000004  0x4        g_uart5_cfg_extend.rx_edge_start         sci_uart_start_bit_t
0x00000008  0x4        g_uart5_cfg_extend.noise_cancel          sci_uart_noise_cancellation_t
0x0000000c  0x4        g_uart5_cfg_extend.p_baud_setting        pointer to baud_setting_t
0x00000010  0x4        g_uart5_cfg_extend.rx_fifo_trigger       sci_uart_rx_fifo_trigger_t
0x00000014  0x4        g_uart5_cfg_extend.flow_control_pin      bsp_io_port_pin_t
0x00000018  0x4        g_uart5_cfg_extend.flow_control          sci_uart_flow_control_t
0x0000001c  0xc        g_uart5_cfg_extend.rs485_setting         sci_uart_rs485_setting_t
0x0000001c  0x4        g_uart5_cfg_extend.rs485_setting.enable  sci_uart_rs485_enable_t
0x00000020  0x4        g_uart5_cfg_extend.rs485_setting.polarity sci_uart_rs485_de_polarity_t
0x00000024  0x4        g_uart5_cfg_extend.rs485_setting.de_control_pin bsp_io_port_pin_t
0x00000028  0x1        g_uart5_cfg_extend.irda_setting          sci_uart_irda_setting_t
0x00000028  0x1        g_uart5_cfg_extend.irda_setting.<anonymous> anonymous
0x00000028  0x1        g_uart5_cfg_extend.irda_setting.<anonymous>.ircr_bits uint8_t
0x00000028  0x1      * g_uart5_cfg_extend.irda_setting.<anonymous>.ircr_bits_b anonymous
0x00000028  0x1(0:1) * g_uart5_cfg_extend.irda_setting.<anonymous>.ircr_bits_b.irrxinv uint8_t
0x00000028  0x1(0:1) * g_uart5_cfg_extend.irda_setting.<anonymous>.ircr_bits_b.irtxinv uint8_t
0x00000028  0x1(0:1)   g_uart5_cfg_extend.irda_setting.<anonymous>.ircr_bits_b.ire uint8_t

address     size       variable name                            type
0x00000000  0x30       g_uart5_ctrl                             sci_uart_instance_ctrl_t
0x00000000  0x1        g_uart5_ctrl.fifo_depth                  uint8_t
0x00000001  0x1      * g_uart5_ctrl.rx_transfer_in_progress     uint8_t
0x00000000  0x1(0:2) * g_uart5_ctrl.data_bytes                  uint8_t
0x00000000  0x1(0:1) * g_uart5_ctrl.bitrate_modulation          uint8_t
0x00000004  0x4        g_uart5_ctrl.open                        uint32_t
0x00000008  0x4        g_uart5_ctrl.flow_pin                    bsp_io_port_pin_t
0x0000000c  0x4        g_uart5_ctrl.p_tx_src                    pointer to const uint8_t
0x00000010  0x4        g_uart5_ctrl.tx_src_bytes                uint32_t
0x00000014  0x4        g_uart5_ctrl.p_rx_dest                   pointer to const uint8_t
0x00000018  0x4        g_uart5_ctrl.rx_dest_bytes               uint32_t
0x0000001c  0x4        g_uart5_ctrl.p_cfg                       pointer to const uart_cfg_t
0x00000020  0x4        g_uart5_ctrl.p_reg                       pointer to R_SCI0_Type
0x00000024  0x4        g_uart5_ctrl.p_callback                  pointer to function 
0x00000028  0x4        g_uart5_ctrl.p_callback_memory           pointer to uart_callback_args_t
0x0000002c  0x4        g_uart5_ctrl.p_context                   pointer to unknown Type 

address     size       variable name                            type
0x00000000  0xc        g_uart9                                  const uart_instance_t
0x00000000  0x4        g_uart9.p_ctrl                           pointer to uart_ctrl_t
0x00000004  0x4        g_uart9.p_cfg                            pointer to const uart_cfg_t
0x00000008  0x4        g_uart9.p_api                            pointer to const uart_api_t

address     size       variable name                            type
0x00000000  0x4        g_uart9_baud_setting                     baud_setting_t
0x00000000  0x1        g_uart9_baud_setting.<anonymous>         anonymous
0x00000000  0x1        g_uart9_baud_setting.<anonymous>.semr_baudrate_bits uint8_t
0x00000000  0x1      * g_uart9_baud_setting.<anonymous>.semr_baudrate_bits_b anonymous
0x00000000  0x1(0:1) * g_uart9_baud_setting.<anonymous>.semr_baudrate_bits_b.brme uint8_t
0x00000000  0x1(0:1) * g_uart9_baud_setting.<anonymous>.semr_baudrate_bits_b.abcse uint8_t
0x00000000  0x1(0:1) * g_uart9_baud_setting.<anonymous>.semr_baudrate_bits_b.abcs uint8_t
0x00000000  0x1(0:1) * g_uart9_baud_setting.<anonymous>.semr_baudrate_bits_b.bgdm uint8_t
0x00000000  0x1(0:2) * g_uart9_baud_setting.cks                 uint8_t
0x00000002  0x1        g_uart9_baud_setting.brr                 uint8_t
0x00000003  0x1        g_uart9_baud_setting.mddr                uint8_t

address     size       variable name                            type
0x00000000  0x44       g_uart9_cfg                              const uart_cfg_t
0x00000000  0x1      * g_uart9_cfg.channel                      uint8_t
0x00000004  0x4        g_uart9_cfg.data_bits                    uart_data_bits_t
0x00000008  0x4        g_uart9_cfg.parity                       uart_parity_t
0x0000000c  0x4        g_uart9_cfg.stop_bits                    uart_stop_bits_t
0x00000010  0x1      * g_uart9_cfg.rxi_ipl                      uint8_t
0x00000014  0x4        g_uart9_cfg.rxi_irq                      IRQn_Type
0x00000018  0x1      * g_uart9_cfg.txi_ipl                      uint8_t
0x0000001c  0x4        g_uart9_cfg.txi_irq                      IRQn_Type
0x00000020  0x1      * g_uart9_cfg.tei_ipl                      uint8_t
0x00000024  0x4        g_uart9_cfg.tei_irq                      IRQn_Type
0x00000028  0x1      * g_uart9_cfg.eri_ipl                      uint8_t
0x0000002c  0x4        g_uart9_cfg.eri_irq                      IRQn_Type
0x00000030  0x4        g_uart9_cfg.p_transfer_rx                pointer to const transfer_instance_t
0x00000034  0x4        g_uart9_cfg.p_transfer_tx                pointer to const transfer_instance_t
0x00000038  0x4        g_uart9_cfg.p_callback                   pointer to function 
0x0000003c  0x4        g_uart9_cfg.p_context                    pointer to unknown Type 
0x00000040  0x4        g_uart9_cfg.p_extend                     pointer to const unknown Type 

address     size       variable name                            type
0x00000000  0x2c       g_uart9_cfg_extend                       const sci_uart_extended_cfg_t
0x00000000  0x4        g_uart9_cfg_extend.clock                 sci_clk_src_t
0x00000004  0x4        g_uart9_cfg_extend.rx_edge_start         sci_uart_start_bit_t
0x00000008  0x4        g_uart9_cfg_extend.noise_cancel          sci_uart_noise_cancellation_t
0x0000000c  0x4        g_uart9_cfg_extend.p_baud_setting        pointer to baud_setting_t
0x00000010  0x4        g_uart9_cfg_extend.rx_fifo_trigger       sci_uart_rx_fifo_trigger_t
0x00000014  0x4        g_uart9_cfg_extend.flow_control_pin      bsp_io_port_pin_t
0x00000018  0x4        g_uart9_cfg_extend.flow_control          sci_uart_flow_control_t
0x0000001c  0xc        g_uart9_cfg_extend.rs485_setting         sci_uart_rs485_setting_t
0x0000001c  0x4        g_uart9_cfg_extend.rs485_setting.enable  sci_uart_rs485_enable_t
0x00000020  0x4        g_uart9_cfg_extend.rs485_setting.polarity sci_uart_rs485_de_polarity_t
0x00000024  0x4        g_uart9_cfg_extend.rs485_setting.de_control_pin bsp_io_port_pin_t
0x00000028  0x1        g_uart9_cfg_extend.irda_setting          sci_uart_irda_setting_t
0x00000028  0x1        g_uart9_cfg_extend.irda_setting.<anonymous> anonymous
0x00000028  0x1        g_uart9_cfg_extend.irda_setting.<anonymous>.ircr_bits uint8_t
0x00000028  0x1      * g_uart9_cfg_extend.irda_setting.<anonymous>.ircr_bits_b anonymous
0x00000028  0x1(0:1) * g_uart9_cfg_extend.irda_setting.<anonymous>.ircr_bits_b.irrxinv uint8_t
0x00000028  0x1(0:1) * g_uart9_cfg_extend.irda_setting.<anonymous>.ircr_bits_b.irtxinv uint8_t
0x00000028  0x1(0:1)   g_uart9_cfg_extend.irda_setting.<anonymous>.ircr_bits_b.ire uint8_t

address     size       variable name                            type
0x00000000  0x30       g_uart9_ctrl                             sci_uart_instance_ctrl_t
0x00000000  0x1        g_uart9_ctrl.fifo_depth                  uint8_t
0x00000001  0x1      * g_uart9_ctrl.rx_transfer_in_progress     uint8_t
0x00000000  0x1(0:2) * g_uart9_ctrl.data_bytes                  uint8_t
0x00000000  0x1(0:1) * g_uart9_ctrl.bitrate_modulation          uint8_t
0x00000004  0x4        g_uart9_ctrl.open                        uint32_t
0x00000008  0x4        g_uart9_ctrl.flow_pin                    bsp_io_port_pin_t
0x0000000c  0x4        g_uart9_ctrl.p_tx_src                    pointer to const uint8_t
0x00000010  0x4        g_uart9_ctrl.tx_src_bytes                uint32_t
0x00000014  0x4        g_uart9_ctrl.p_rx_dest                   pointer to const uint8_t
0x00000018  0x4        g_uart9_ctrl.rx_dest_bytes               uint32_t
0x0000001c  0x4        g_uart9_ctrl.p_cfg                       pointer to const uart_cfg_t
0x00000020  0x4        g_uart9_ctrl.p_reg                       pointer to R_SCI0_Type
0x00000024  0x4        g_uart9_ctrl.p_callback                  pointer to function 
0x00000028  0x4        g_uart9_ctrl.p_callback_memory           pointer to uart_callback_args_t
0x0000002c  0x4        g_uart9_ctrl.p_context                   pointer to unknown Type 

address     size       variable name                            type
0x200005b0  0x4        new_thread0                              TaskHandle_t

address     size       variable name                            type
0x200005b4  0x60       new_thread0_memory                       StaticTask_t
0x200005b4  0x4        new_thread0_memory.pxDummy1              pointer to unknown Type 
0x200005b8  0x28       new_thread0_memory.xDummy3               array[2] of StaticListItem_t
0x200005e0  0x4        new_thread0_memory.uxDummy5              UBaseType_t
0x200005e4  0x4        new_thread0_memory.pxDummy6              pointer to unknown Type 
0x200005e8  0x10       new_thread0_memory.ucDummy7              array[16] of uint8_t
0x200005f8  0x14       new_thread0_memory.pvDummy15             array[5] of pointer to unknown Type 
0x2000060c  0x4        new_thread0_memory.ulDummy18             array[1] of uint32_t
0x20000610  0x1        new_thread0_memory.ucDummy19             array[1] of uint8_t

address     size       variable name                            type
0x00004270  0x4        new_thread0_parameters                   const rm_freertos_port_parameters_t
0x00004270  0x4        new_thread0_parameters.p_context         pointer to unknown Type 

address     size       variable name                            type
0x20000d28  0x800      new_thread0_stack                        array[2048] of uint8_t

address     size       variable name                            type
0x00001bec  0xb                                                 array[11] of char

address     size       variable name                            type
0x20000484  0x1        g_fsp_common_initialized                 _Bool

address     size       variable name                            type
0x20000488  0x4        g_fsp_common_initialized_semaphore       SemaphoreHandle_t

address     size       variable name                            type
0x2000048c  0x48       g_fsp_common_initialized_semaphore_memory StaticSemaphore_t
0x2000048c  0xc        g_fsp_common_initialized_semaphore_memory.pvDummy1 array[3] of pointer to unknown Type 
0x20000498  0x4        g_fsp_common_initialized_semaphore_memory.u anonymous
0x20000498  0x4        g_fsp_common_initialized_semaphore_memory.u.pvDummy2 pointer to unknown Type 
0x20000498  0x4        g_fsp_common_initialized_semaphore_memory.u.uxDummy2 UBaseType_t
0x2000049c  0x28       g_fsp_common_initialized_semaphore_memory.xDummy3 array[2] of StaticList_t
0x200004c4  0xc        g_fsp_common_initialized_semaphore_memory.uxDummy4 array[3] of UBaseType_t
0x200004d0  0x2        g_fsp_common_initialized_semaphore_memory.ucDummy5 array[2] of uint8_t

address     size       variable name                            type
0x200004d4  0x4        g_fsp_common_thread_count                uint32_t

address     size       variable name                            type
0x0000404c  0xc        g_i2c_1                                  const i2c_master_instance_t
0x0000404c  0x4        g_i2c_1.p_ctrl                           pointer to i2c_master_ctrl_t
0x00004050  0x4        g_i2c_1.p_cfg                            pointer to const i2c_master_cfg_t
0x00004054  0x4        g_i2c_1.p_api                            pointer to const i2c_master_api_t

address     size       variable name                            type
0x00004058  0x38       g_i2c_1_cfg                              const i2c_master_cfg_t
0x00004058  0x1      * g_i2c_1_cfg.channel                      uint8_t
0x0000405c  0x4        g_i2c_1_cfg.rate                         i2c_master_rate_t
0x00004060  0x4        g_i2c_1_cfg.slave                        uint32_t
0x00004064  0x4        g_i2c_1_cfg.addr_mode                    i2c_master_addr_mode_t
0x00004068  0x1      * g_i2c_1_cfg.ipl                          uint8_t
0x0000406c  0x4        g_i2c_1_cfg.rxi_irq                      IRQn_Type
0x00004070  0x4        g_i2c_1_cfg.txi_irq                      IRQn_Type
0x00004074  0x4        g_i2c_1_cfg.tei_irq                      IRQn_Type
0x00004078  0x4        g_i2c_1_cfg.eri_irq                      IRQn_Type
0x0000407c  0x4        g_i2c_1_cfg.p_transfer_tx                pointer to const transfer_instance_t
0x00004080  0x4        g_i2c_1_cfg.p_transfer_rx                pointer to const transfer_instance_t
0x00004084  0x4        g_i2c_1_cfg.p_callback                   pointer to function 
0x00004088  0x4        g_i2c_1_cfg.p_context                    pointer to unknown Type 
0x0000408c  0x4        g_i2c_1_cfg.p_extend                     pointer to const unknown Type 

address     size       variable name                            type
0x200004d8  0x40       g_i2c_1_ctrl                             iic_master_instance_ctrl_t
0x200004d8  0x4        g_i2c_1_ctrl.p_cfg                       pointer to const i2c_master_cfg_t
0x200004dc  0x4        g_i2c_1_ctrl.slave                       uint32_t
0x200004e0  0x4        g_i2c_1_ctrl.addr_mode                   i2c_master_addr_mode_t
0x200004e4  0x4        g_i2c_1_ctrl.open                        uint32_t
0x200004e8  0x4        g_i2c_1_ctrl.p_reg                       pointer to R_IIC0_Type
0x200004ec  0x4        g_i2c_1_ctrl.p_buff                      pointer to uint8_t
0x200004f0  0x4        g_i2c_1_ctrl.total                       uint32_t
0x200004f4  0x4        g_i2c_1_ctrl.remain                      uint32_t
0x200004f8  0x4        g_i2c_1_ctrl.loaded                      uint32_t
0x200004fc  0x1        g_i2c_1_ctrl.addr_low                    uint8_t
0x200004fd  0x1        g_i2c_1_ctrl.addr_high                   uint8_t
0x200004fe  0x1        g_i2c_1_ctrl.addr_total                  uint8_t
0x200004ff  0x1        g_i2c_1_ctrl.addr_remain                 uint8_t
0x20000500  0x1        g_i2c_1_ctrl.addr_loaded                 uint8_t
0x20000501  0x1        g_i2c_1_ctrl.read                        volatile _Bool
0x20000502  0x1        g_i2c_1_ctrl.restart                     volatile _Bool
0x20000503  0x1        g_i2c_1_ctrl.err                         volatile _Bool
0x20000504  0x1        g_i2c_1_ctrl.restarted                   volatile _Bool
0x20000505  0x1        g_i2c_1_ctrl.dummy_read_completed        volatile _Bool
0x20000506  0x1        g_i2c_1_ctrl.activation_on_rxi           volatile _Bool
0x20000507  0x1        g_i2c_1_ctrl.activation_on_txi           volatile _Bool
0x20000508  0x1      * g_i2c_1_ctrl.address_restarted           volatile _Bool
0x2000050c  0x4        g_i2c_1_ctrl.p_callback                  pointer to function 
0x20000510  0x4        g_i2c_1_ctrl.p_callback_memory           pointer to i2c_master_callback_args_t
0x20000514  0x4        g_i2c_1_ctrl.p_context                   pointer to unknown Type 

address     size       variable name                            type
0x00004090  0x10       g_i2c_1_extend                           const iic_master_extended_cfg_t
0x00004090  0x4        g_i2c_1_extend.timeout_mode              iic_master_timeout_mode_t
0x00004094  0x4        g_i2c_1_extend.timeout_scl_low           iic_master_timeout_scl_low_t
0x00004098  0x5        g_i2c_1_extend.clock_settings            iic_master_clock_settings_t
0x00004098  0x1        g_i2c_1_extend.clock_settings.cks_value  uint8_t
0x00004099  0x1        g_i2c_1_extend.clock_settings.brh_value  uint8_t
0x0000409a  0x1        g_i2c_1_extend.clock_settings.brl_value  uint8_t
0x0000409b  0x1        g_i2c_1_extend.clock_settings.sddl_value uint8_t
0x0000409c  0x1        g_i2c_1_extend.clock_settings.dlcs_value _Bool
0x0000409d  0x1        g_i2c_1_extend.smbus_operation           _Bool

address     size       variable name                            type
0x00004128  0xc        g_uart7                                  const uart_instance_t
0x00004128  0x4        g_uart7.p_ctrl                           pointer to uart_ctrl_t
0x0000412c  0x4        g_uart7.p_cfg                            pointer to const uart_cfg_t
0x00004130  0x4        g_uart7.p_api                            pointer to const uart_api_t

address     size       variable name                            type
0x20000000  0x4        g_uart7_baud_setting                     baud_setting_t
0x20000000  0x1        g_uart7_baud_setting.<anonymous>         anonymous
0x20000000  0x1        g_uart7_baud_setting.<anonymous>.semr_baudrate_bits uint8_t
0x20000000  0x1      * g_uart7_baud_setting.<anonymous>.semr_baudrate_bits_b anonymous
0x20000000  0x1(0:1) * g_uart7_baud_setting.<anonymous>.semr_baudrate_bits_b.brme uint8_t
0x20000000  0x1(0:1) * g_uart7_baud_setting.<anonymous>.semr_baudrate_bits_b.abcse uint8_t
0x20000000  0x1(0:1) * g_uart7_baud_setting.<anonymous>.semr_baudrate_bits_b.abcs uint8_t
0x20000000  0x1(0:1) * g_uart7_baud_setting.<anonymous>.semr_baudrate_bits_b.bgdm uint8_t
0x20000000  0x1(0:2) * g_uart7_baud_setting.cks                 uint8_t
0x20000002  0x1        g_uart7_baud_setting.brr                 uint8_t
0x20000003  0x1        g_uart7_baud_setting.mddr                uint8_t

address     size       variable name                            type
0x00004134  0x44       g_uart7_cfg                              const uart_cfg_t
0x00004134  0x1      * g_uart7_cfg.channel                      uint8_t
0x00004138  0x4        g_uart7_cfg.data_bits                    uart_data_bits_t
0x0000413c  0x4        g_uart7_cfg.parity                       uart_parity_t
0x00004140  0x4        g_uart7_cfg.stop_bits                    uart_stop_bits_t
0x00004144  0x1      * g_uart7_cfg.rxi_ipl                      uint8_t
0x00004148  0x4        g_uart7_cfg.rxi_irq                      IRQn_Type
0x0000414c  0x1      * g_uart7_cfg.txi_ipl                      uint8_t
0x00004150  0x4        g_uart7_cfg.txi_irq                      IRQn_Type
0x00004154  0x1      * g_uart7_cfg.tei_ipl                      uint8_t
0x00004158  0x4        g_uart7_cfg.tei_irq                      IRQn_Type
0x0000415c  0x1      * g_uart7_cfg.eri_ipl                      uint8_t
0x00004160  0x4        g_uart7_cfg.eri_irq                      IRQn_Type
0x00004164  0x4        g_uart7_cfg.p_transfer_rx                pointer to const transfer_instance_t
0x00004168  0x4        g_uart7_cfg.p_transfer_tx                pointer to const transfer_instance_t
0x0000416c  0x4        g_uart7_cfg.p_callback                   pointer to function 
0x00004170  0x4        g_uart7_cfg.p_context                    pointer to unknown Type 
0x00004174  0x4        g_uart7_cfg.p_extend                     pointer to const unknown Type 

address     size       variable name                            type
0x00004178  0x2c       g_uart7_cfg_extend                       const sci_uart_extended_cfg_t
0x00004178  0x4        g_uart7_cfg_extend.clock                 sci_clk_src_t
0x0000417c  0x4        g_uart7_cfg_extend.rx_edge_start         sci_uart_start_bit_t
0x00004180  0x4        g_uart7_cfg_extend.noise_cancel          sci_uart_noise_cancellation_t
0x00004184  0x4        g_uart7_cfg_extend.p_baud_setting        pointer to baud_setting_t
0x00004188  0x4        g_uart7_cfg_extend.rx_fifo_trigger       sci_uart_rx_fifo_trigger_t
0x0000418c  0x4        g_uart7_cfg_extend.flow_control_pin      bsp_io_port_pin_t
0x00004190  0x4        g_uart7_cfg_extend.flow_control          sci_uart_flow_control_t
0x00004194  0xc        g_uart7_cfg_extend.rs485_setting         sci_uart_rs485_setting_t
0x00004194  0x4        g_uart7_cfg_extend.rs485_setting.enable  sci_uart_rs485_enable_t
0x00004198  0x4        g_uart7_cfg_extend.rs485_setting.polarity sci_uart_rs485_de_polarity_t
0x0000419c  0x4        g_uart7_cfg_extend.rs485_setting.de_control_pin bsp_io_port_pin_t
0x000041a0  0x1        g_uart7_cfg_extend.irda_setting          sci_uart_irda_setting_t
0x000041a0  0x1        g_uart7_cfg_extend.irda_setting.<anonymous> anonymous
0x000041a0  0x1        g_uart7_cfg_extend.irda_setting.<anonymous>.ircr_bits uint8_t
0x000041a0  0x1      * g_uart7_cfg_extend.irda_setting.<anonymous>.ircr_bits_b anonymous
0x000041a0  0x1(0:1) * g_uart7_cfg_extend.irda_setting.<anonymous>.ircr_bits_b.irrxinv uint8_t
0x000041a0  0x1(0:1) * g_uart7_cfg_extend.irda_setting.<anonymous>.ircr_bits_b.irtxinv uint8_t
0x000041a0  0x1(0:1)   g_uart7_cfg_extend.irda_setting.<anonymous>.ircr_bits_b.ire uint8_t

address     size       variable name                            type
0x20000534  0x30       g_uart7_ctrl                             sci_uart_instance_ctrl_t
0x20000534  0x1        g_uart7_ctrl.fifo_depth                  uint8_t
0x20000535  0x1      * g_uart7_ctrl.rx_transfer_in_progress     uint8_t
0x20000534  0x1(0:2) * g_uart7_ctrl.data_bytes                  uint8_t
0x20000534  0x1(0:1) * g_uart7_ctrl.bitrate_modulation          uint8_t
0x20000538  0x4        g_uart7_ctrl.open                        uint32_t
0x2000053c  0x4        g_uart7_ctrl.flow_pin                    bsp_io_port_pin_t
0x20000540  0x4        g_uart7_ctrl.p_tx_src                    pointer to const uint8_t
0x20000544  0x4        g_uart7_ctrl.tx_src_bytes                uint32_t
0x20000548  0x4        g_uart7_ctrl.p_rx_dest                   pointer to const uint8_t
0x2000054c  0x4        g_uart7_ctrl.rx_dest_bytes               uint32_t
0x20000550  0x4        g_uart7_ctrl.p_cfg                       pointer to const uart_cfg_t
0x20000554  0x4        g_uart7_ctrl.p_reg                       pointer to R_SCI0_Type
0x20000558  0x4        g_uart7_ctrl.p_callback                  pointer to function 
0x2000055c  0x4        g_uart7_ctrl.p_callback_memory           pointer to uart_callback_args_t
0x20000560  0x4        g_uart7_ctrl.p_context                   pointer to unknown Type 

address     size       variable name                            type
0x00000000  0xc        g_ioport                                 const ioport_instance_t
0x00000000  0x4        g_ioport.p_ctrl                          pointer to ioport_ctrl_t
0x00000004  0x4        g_ioport.p_cfg                           pointer to const ioport_cfg_t
0x00000008  0x4        g_ioport.p_api                           pointer to const ioport_api_t

address     size       variable name                            type
0x20000518  0x8        g_ioport_ctrl                            ioport_instance_ctrl_t
0x20000518  0x4        g_ioport_ctrl.open                       uint32_t
0x2000051c  0x4        g_ioport_ctrl.p_context                  pointer to unknown Type 

address     size       variable name                            type
0x20000520  0x4        g_mask_level_before_disable              uint32_t

address     size       variable name                            type
0x20000750  0x4        uxCriticalNesting                        UBaseType_t

address     size       variable name                            type
0x00000000  0x2c                                                array[44] of char

address     size       variable name                            type
0x00000000  0x35                                                array[53] of char

address     size       variable name                            type
0x00002698  0x12                                                array[18] of char

address     size       variable name                            type
0x00004766  0x46                                                array[70] of char

address     size       variable name                            type
0x000047ac  0x53                                                array[83] of char

address     size       variable name                            type
0x000026d4  0x11                                                array[17] of char

address     size       variable name                            type
0x00000000  0xd        g_async_baud                             array[13] of const baud_setting_const_t

address     size       variable name                            type
0x00000000  0x1a       g_div_coefficient                        array[13] of const uint16_t

address     size       variable name                            type
0x000041a4  0x2c       g_uart_on_sci                            const uart_api_t
0x000041a4  0x4        g_uart_on_sci.open                       pointer to function 
0x000041a8  0x4        g_uart_on_sci.read                       pointer to function 
0x000041ac  0x4        g_uart_on_sci.write                      pointer to function 
0x000041b0  0x4        g_uart_on_sci.baudSet                    pointer to function 
0x000041b4  0x4        g_uart_on_sci.infoGet                    pointer to function 
0x000041b8  0x4        g_uart_on_sci.communicationAbort         pointer to function 
0x000041bc  0x4        g_uart_on_sci.callbackSet                pointer to function 
0x000041c0  0x4        g_uart_on_sci.close                      pointer to function 
0x000041c4  0x4        g_uart_on_sci.readStop                   pointer to function 
0x000041c8  0x4        g_uart_on_sci.receiveSuspend             pointer to function 
0x000041cc  0x4        g_uart_on_sci.receiveResume              pointer to function 

address     size       variable name                            type
0x00000000  0x34       g_ioport_on_ioport                       const ioport_api_t
0x00000000  0x4        g_ioport_on_ioport.open                  pointer to function 
0x00000004  0x4        g_ioport_on_ioport.close                 pointer to function 
0x00000008  0x4        g_ioport_on_ioport.pinsCfg               pointer to function 
0x0000000c  0x4        g_ioport_on_ioport.pinCfg                pointer to function 
0x00000010  0x4        g_ioport_on_ioport.pinEventInputRead     pointer to function 
0x00000014  0x4        g_ioport_on_ioport.pinEventOutputWrite   pointer to function 
0x00000018  0x4        g_ioport_on_ioport.pinRead               pointer to function 
0x0000001c  0x4        g_ioport_on_ioport.pinWrite              pointer to function 
0x00000020  0x4        g_ioport_on_ioport.portDirectionSet      pointer to function 
0x00000024  0x4        g_ioport_on_ioport.portEventInputRead    pointer to function 
0x00000028  0x4        g_ioport_on_ioport.portEventOutputWrite  pointer to function 
0x0000002c  0x4        g_ioport_on_ioport.portRead              pointer to function 
0x00000030  0x4        g_ioport_on_ioport.portWrite             pointer to function 

address     size       variable name                            type
0x00001158  0xc        g_vbatt_pins_input                       array[3] of const bsp_io_port_pin_t

address     size       variable name                            type
0x00000000  0x34       g_timer_on_gpt                           const timer_api_t
0x00000000  0x4        g_timer_on_gpt.open                      pointer to function 
0x00000004  0x4        g_timer_on_gpt.start                     pointer to function 
0x00000008  0x4        g_timer_on_gpt.stop                      pointer to function 
0x0000000c  0x4        g_timer_on_gpt.reset                     pointer to function 
0x00000010  0x4        g_timer_on_gpt.enable                    pointer to function 
0x00000014  0x4        g_timer_on_gpt.disable                   pointer to function 
0x00000018  0x4        g_timer_on_gpt.periodSet                 pointer to function 
0x0000001c  0x4        g_timer_on_gpt.dutyCycleSet              pointer to function 
0x00000020  0x4        g_timer_on_gpt.compareMatchSet           pointer to function 
0x00000024  0x4        g_timer_on_gpt.infoGet                   pointer to function 
0x00000028  0x4        g_timer_on_gpt.statusGet                 pointer to function 
0x0000002c  0x4        g_timer_on_gpt.callbackSet               pointer to function 
0x00000030  0x4        g_timer_on_gpt.close                     pointer to function 

address     size       variable name                            type
0x00003eb8  0x80       copy_list                                array[8] of const bsp_init_copy_info_t

address     size       variable name                            type
0x0100a100  0x4        g_bsp_cfg_option_setting_ofs0            array[1] of const uint32_t

address     size       variable name                            type
0x0100a200  0x4        g_bsp_cfg_option_setting_ofs1_sec        array[1] of const uint32_t

address     size       variable name                            type
0x0100a280  0x4        g_bsp_cfg_option_setting_ofs1_sel        array[1] of const uint32_t

address     size       variable name                            type
0x000040c0  0x18       g_init_info                              const bsp_init_info_t
0x000040c0  0x4        g_init_info.zero_count                   uint32_t
0x000040c4  0x4        g_init_info.p_zero_list                  const pointer to const bsp_init_zero_info_t
0x000040c8  0x4        g_init_info.copy_count                   uint32_t
0x000040cc  0x4        g_init_info.p_copy_list                  const pointer to const bsp_init_copy_info_t
0x000040d0  0x4        g_init_info.nocache_count                uint32_t
0x000040d4  0x4        g_init_info.p_nocache_list               const pointer to const bsp_mpu_nocache_info_t

address     size       variable name                            type
0x000041d0  0x4        gp_ddsc_DATA_FLASH_END                   const pointer to const uint32_t

address     size       variable name                            type
0x000041d4  0x4        gp_ddsc_DATA_FLASH_START                 const pointer to const uint32_t

address     size       variable name                            type
0x000041d8  0x4        gp_ddsc_FLASH_END                        const pointer to const uint32_t

address     size       variable name                            type
0x000041dc  0x4        gp_ddsc_FLASH_NSC                        const pointer to const uint32_t

address     size       variable name                            type
0x000041e0  0x4        gp_ddsc_FLASH_START                      const pointer to const uint32_t

address     size       variable name                            type
0x000041e4  0x4        gp_ddsc_OPTION_SETTING_BANKSEL_END       const pointer to const uint32_t

address     size       variable name                            type
0x000041e8  0x4        gp_ddsc_OPTION_SETTING_BANKSEL_SEC_END   const pointer to const uint32_t

address     size       variable name                            type
0x000041ec  0x4        gp_ddsc_OPTION_SETTING_BANKSEL_SEC_START const pointer to const uint32_t

address     size       variable name                            type
0x000041f0  0x4        gp_ddsc_OPTION_SETTING_BANKSEL_SEL_END   const pointer to const uint32_t

address     size       variable name                            type
0x000041f4  0x4        gp_ddsc_OPTION_SETTING_BANKSEL_SEL_START const pointer to const uint32_t

address     size       variable name                            type
0x000041f8  0x4        gp_ddsc_OPTION_SETTING_BANKSEL_START     const pointer to const uint32_t

address     size       variable name                            type
0x000041fc  0x4        gp_ddsc_OPTION_SETTING_BPS_END           const pointer to const uint32_t

address     size       variable name                            type
0x00004200  0x4        gp_ddsc_OPTION_SETTING_BPS_SEC_END       const pointer to const uint32_t

address     size       variable name                            type
0x00004204  0x4        gp_ddsc_OPTION_SETTING_BPS_SEC_START     const pointer to const uint32_t

address     size       variable name                            type
0x00004208  0x4        gp_ddsc_OPTION_SETTING_BPS_SEL_END       const pointer to const uint32_t

address     size       variable name                            type
0x0000420c  0x4        gp_ddsc_OPTION_SETTING_BPS_SEL_START     const pointer to const uint32_t

address     size       variable name                            type
0x00004210  0x4        gp_ddsc_OPTION_SETTING_BPS_START         const pointer to const uint32_t

address     size       variable name                            type
0x00004214  0x4        gp_ddsc_OPTION_SETTING_DUALSEL_END       const pointer to const uint32_t

address     size       variable name                            type
0x00004218  0x4        gp_ddsc_OPTION_SETTING_DUALSEL_START     const pointer to const uint32_t

address     size       variable name                            type
0x0000421c  0x4        gp_ddsc_OPTION_SETTING_OFS0_END          const pointer to const uint32_t

address     size       variable name                            type
0x00004220  0x4        gp_ddsc_OPTION_SETTING_OFS0_START        const pointer to const uint32_t

address     size       variable name                            type
0x00004224  0x4        gp_ddsc_OPTION_SETTING_OFS1_END          const pointer to const uint32_t

address     size       variable name                            type
0x00004228  0x4        gp_ddsc_OPTION_SETTING_OFS1_SEC_END      const pointer to const uint32_t

address     size       variable name                            type
0x0000422c  0x4        gp_ddsc_OPTION_SETTING_OFS1_SEC_START    const pointer to const uint32_t

address     size       variable name                            type
0x00004230  0x4        gp_ddsc_OPTION_SETTING_OFS1_SEL_END      const pointer to const uint32_t

address     size       variable name                            type
0x00004234  0x4        gp_ddsc_OPTION_SETTING_OFS1_SEL_START    const pointer to const uint32_t

address     size       variable name                            type
0x00004238  0x4        gp_ddsc_OPTION_SETTING_OFS1_START        const pointer to const uint32_t

address     size       variable name                            type
0x0000423c  0x4        gp_ddsc_OPTION_SETTING_PBPS_END          const pointer to const uint32_t

address     size       variable name                            type
0x00004240  0x4        gp_ddsc_OPTION_SETTING_PBPS_SEC_END      const pointer to const uint32_t

address     size       variable name                            type
0x00004244  0x4        gp_ddsc_OPTION_SETTING_PBPS_SEC_START    const pointer to const uint32_t

address     size       variable name                            type
0x00004248  0x4        gp_ddsc_OPTION_SETTING_PBPS_START        const pointer to const uint32_t

address     size       variable name                            type
0x0000424c  0x4        gp_ddsc_OSPI0_CS0_END                    const pointer to const uint32_t

address     size       variable name                            type
0x00004250  0x4        gp_ddsc_OSPI0_CS0_START                  const pointer to const uint32_t

address     size       variable name                            type
0x00004254  0x4        gp_ddsc_OSPI0_CS1_END                    const pointer to const uint32_t

address     size       variable name                            type
0x00004258  0x4        gp_ddsc_OSPI0_CS1_START                  const pointer to const uint32_t

address     size       variable name                            type
0x0000425c  0x4        gp_ddsc_QSPI_FLASH_END                   const pointer to const uint32_t

address     size       variable name                            type
0x00004260  0x4        gp_ddsc_QSPI_FLASH_START                 const pointer to const uint32_t

address     size       variable name                            type
0x00004264  0x4        gp_ddsc_RAM_END                          const pointer to const uint32_t

address     size       variable name                            type
0x00004268  0x4        gp_ddsc_RAM_NSC                          const pointer to const uint32_t

address     size       variable name                            type
0x0000426c  0x4        gp_ddsc_RAM_START                        const pointer to const uint32_t

address     size       variable name                            type
0x00004274  0x10       nocache_list                             array[2] of const bsp_mpu_nocache_info_t

address     size       variable name                            type
0x00004804  0x30       zero_list                                array[4] of const bsp_init_zero_info_t

address     size       variable name                            type
0x0000411c  0xa        g_prcr_masks                             array[5] of const uint16_t

address     size       variable name                            type
0x20000524  0xa        g_protect_counters                       array[5] of volatile uint16_t

address     size       variable name                            type
0x000040d8  0x44       g_interrupt_event_link_select            array[17] of const bsp_interrupt_event_t

address     size       variable name                            type
0x2000056c  0x44       gp_renesas_isr_context                   array[17] of pointer to unknown Type 

address     size       variable name                            type
0x20000530  0x4        g_protect_pfswe_counter                  volatile uint32_t

address     size       variable name                            type
0x20000444  0x40       g_bsp_group_irq_sources                  array[16] of bsp_grp_irq_cb_t

address     size       variable name                            type
0x00004834  0x4        g_fsp_version                            const fsp_pack_version_t
0x00004834  0x4        g_fsp_version.version_id                 uint32_t
0x00004834  0x4        g_fsp_version.version_id_b               version_id_b_s
0x00004834  0x1        g_fsp_version.version_id_b.build         uint8_t
0x00004835  0x1        g_fsp_version.version_id_b.patch         uint8_t
0x00004836  0x1        g_fsp_version.version_id_b.minor         uint8_t
0x00004837  0x1        g_fsp_version.version_id_b.major         uint8_t

address     size       variable name                            type
0x0000483e  0x44       g_fsp_version_build_string               array[68] of const uint8_t

address     size       variable name                            type
0x00004838  0x6        g_fsp_version_string                     array[6] of const uint8_t

address     size       variable name                            type
0x20000420  0x1c       g_clock_freq                             array[7] of uint32_t

address     size       variable name                            type
0x2000043c  0x4        SystemCoreClock                          uint32_t

address     size       variable name                            type
0x00000000  0x40       __Vectors                                array[16] of const exc_ptr_t

address     size       variable name                            type
0x20000020  0          g_heap                                   array[0] of uint8_t

address     size       variable name                            type
0x20000020  0x400      g_main_stack                             array[1024] of uint8_t

address     size       variable name                            type
0x200006dc  0x4        pxCurrentTimerList                       pointer to List_t

address     size       variable name                            type
0x200006e8  0x4        pxOverflowTimerList                      pointer to List_t

address     size       variable name                            type
0x20000c28  0x14       xActiveTimerList1                        List_t
0x20000c28  0x4        xActiveTimerList1.uxNumberOfItems        UBaseType_t
0x20000c2c  0x4        xActiveTimerList1.pxIndex                pointer to ListItem_t
0x20000c30  0xc        xActiveTimerList1.xListEnd               MiniListItem_t
0x20000c30  0x4        xActiveTimerList1.xListEnd.xItemValue    TickType_t
0x20000c34  0x4        xActiveTimerList1.xListEnd.pxNext        pointer to xLIST_ITEM
0x20000c38  0x4        xActiveTimerList1.xListEnd.pxPrevious    pointer to xLIST_ITEM

address     size       variable name                            type
0x20000c3c  0x14       xActiveTimerList2                        List_t
0x20000c3c  0x4        xActiveTimerList2.uxNumberOfItems        UBaseType_t
0x20000c40  0x4        xActiveTimerList2.pxIndex                pointer to ListItem_t
0x20000c44  0xc        xActiveTimerList2.xListEnd               MiniListItem_t
0x20000c44  0x4        xActiveTimerList2.xListEnd.xItemValue    TickType_t
0x20000c48  0x4        xActiveTimerList2.xListEnd.pxNext        pointer to xLIST_ITEM
0x20000c4c  0x4        xActiveTimerList2.xListEnd.pxPrevious    pointer to xLIST_ITEM

address     size       variable name                            type
0x20000d1c  0x4        xTimerQueue                              QueueHandle_t

address     size       variable name                            type
0x20000d20  0x4        xTimerTaskHandle                         TaskHandle_t

address     size       variable name                            type
0x00001d48  0x5                                                 array[5] of char

address     size       variable name                            type
0x000020a8  0x25                                                array[37] of char

address     size       variable name                            type
0x00000000  0x1c                                                array[28] of char

address     size       variable name                            type
0x00000000  0x14                                                array[20] of char

address     size       variable name                            type
0x00000000  0x1a                                                array[26] of char

address     size       variable name                            type
0x00000000  0x23                                                array[35] of char

address     size       variable name                            type
0x00000000  0x22                                                array[34] of char

address     size       variable name                            type
0x0000475f  0x7                                                 array[7] of char

address     size       variable name                            type
0x00000000  0xe                                                 array[14] of char

address     size       variable name                            type
0x00000000  0x1b                                                array[27] of char

address     size       variable name                            type
0x00004706  0x59                                                array[89] of char

address     size       variable name                            type
0x000038c0  0x8                                                 array[8] of char

address     size       variable name                            type
0x000038b8  0x8                                                 array[8] of char

address     size       variable name                            type
0x200006d8  0x4        pxCurrentTCB                             volatile pointer to TCB_t

address     size       variable name                            type
0x200006e0  0x4        pxDelayedTaskList                        volatile pointer to List_t

address     size       variable name                            type
0x200006e4  0x4        pxOverflowDelayedTaskList                volatile pointer to List_t

address     size       variable name                            type
0x200006ec  0x64       pxReadyTasksLists                        array[5] of List_t

address     size       variable name                            type
0x20000754  0x4        uxCurrentNumberOfTasks                   volatile UBaseType_t

address     size       variable name                            type
0x20000758  0x4        uxDeletedTasksWaitingCleanUp             volatile UBaseType_t

address     size       variable name                            type
0x2000075c  0x4        uxSchedulerSuspended                     volatile UBaseType_t

address     size       variable name                            type
0x20000760  0x4        uxTaskNumber                             UBaseType_t

address     size       variable name                            type
0x20000764  0x4        uxTopReadyPriority                       volatile UBaseType_t

address     size       variable name                            type
0x00004800  0x4        uxTopUsedPriority                        const volatile UBaseType_t

address     size       variable name                            type
0x20000c50  0x14       xDelayedTaskList1                        List_t
0x20000c50  0x4        xDelayedTaskList1.uxNumberOfItems        UBaseType_t
0x20000c54  0x4        xDelayedTaskList1.pxIndex                pointer to ListItem_t
0x20000c58  0xc        xDelayedTaskList1.xListEnd               MiniListItem_t
0x20000c58  0x4        xDelayedTaskList1.xListEnd.xItemValue    TickType_t
0x20000c5c  0x4        xDelayedTaskList1.xListEnd.pxNext        pointer to xLIST_ITEM
0x20000c60  0x4        xDelayedTaskList1.xListEnd.pxPrevious    pointer to xLIST_ITEM

address     size       variable name                            type
0x20000c64  0x14       xDelayedTaskList2                        List_t
0x20000c64  0x4        xDelayedTaskList2.uxNumberOfItems        UBaseType_t
0x20000c68  0x4        xDelayedTaskList2.pxIndex                pointer to ListItem_t
0x20000c6c  0xc        xDelayedTaskList2.xListEnd               MiniListItem_t
0x20000c6c  0x4        xDelayedTaskList2.xListEnd.xItemValue    TickType_t
0x20000c70  0x4        xDelayedTaskList2.xListEnd.pxNext        pointer to xLIST_ITEM
0x20000c74  0x4        xDelayedTaskList2.xListEnd.pxPrevious    pointer to xLIST_ITEM

address     size       variable name                            type
0x20000c78  0x4        xIdleTaskHandles                         array[1] of TaskHandle_t

address     size       variable name                            type
0x20000c7c  0x4        xNextTaskUnblockTime                     volatile TickType_t

address     size       variable name                            type
0x20000c80  0x4        xNumOfOverflows                          volatile BaseType_t

address     size       variable name                            type
0x20000c84  0x4        xPendedTicks                             volatile TickType_t

address     size       variable name                            type
0x20000c88  0x14       xPendingReadyList                        List_t
0x20000c88  0x4        xPendingReadyList.uxNumberOfItems        UBaseType_t
0x20000c8c  0x4        xPendingReadyList.pxIndex                pointer to ListItem_t
0x20000c90  0xc        xPendingReadyList.xListEnd               MiniListItem_t
0x20000c90  0x4        xPendingReadyList.xListEnd.xItemValue    TickType_t
0x20000c94  0x4        xPendingReadyList.xListEnd.pxNext        pointer to xLIST_ITEM
0x20000c98  0x4        xPendingReadyList.xListEnd.pxPrevious    pointer to xLIST_ITEM

address     size       variable name                            type
0x20000cec  0x4        xSchedulerRunning                        volatile BaseType_t

address     size       variable name                            type
0x20000cf0  0x14       xSuspendedTaskList                       List_t
0x20000cf0  0x4        xSuspendedTaskList.uxNumberOfItems       UBaseType_t
0x20000cf4  0x4        xSuspendedTaskList.pxIndex               pointer to ListItem_t
0x20000cf8  0xc        xSuspendedTaskList.xListEnd              MiniListItem_t
0x20000cf8  0x4        xSuspendedTaskList.xListEnd.xItemValue   TickType_t
0x20000cfc  0x4        xSuspendedTaskList.xListEnd.pxNext       pointer to xLIST_ITEM
0x20000d00  0x4        xSuspendedTaskList.xListEnd.pxPrevious   pointer to xLIST_ITEM

address     size       variable name                            type
0x20000d04  0x14       xTasksWaitingTermination                 List_t
0x20000d04  0x4        xTasksWaitingTermination.uxNumberOfItems UBaseType_t
0x20000d08  0x4        xTasksWaitingTermination.pxIndex         pointer to ListItem_t
0x20000d0c  0xc        xTasksWaitingTermination.xListEnd        MiniListItem_t
0x20000d0c  0x4        xTasksWaitingTermination.xListEnd.xItemValue TickType_t
0x20000d10  0x4        xTasksWaitingTermination.xListEnd.pxNext pointer to xLIST_ITEM
0x20000d14  0x4        xTasksWaitingTermination.xListEnd.pxPrevious pointer to xLIST_ITEM

address     size       variable name                            type
0x20000d18  0x4        xTickCount                               volatile TickType_t

address     size       variable name                            type
0x20000d24  0x4        xYieldPendings                           array[1] of volatile BaseType_t

address     size       variable name                            type
0x00004631  0x5                                                 array[5] of char

address     size       variable name                            type
0x000033c4  0x11                                                array[17] of char

address     size       variable name                            type
0x000033a8  0x19                                                array[25] of char

address     size       variable name                            type
0x000033d8  0x12                                                array[18] of char

address     size       variable name                            type
0x000033ec  0x14                                                array[20] of char

address     size       variable name                            type
0x00004589  0x15                                                array[21] of char

address     size       variable name                            type
0x000045d3  0x35                                                array[53] of char

address     size       variable name                            type
0x000045b4  0x1f                                                array[31] of char

address     size       variable name                            type
0x000046f8  0xe                                                 array[14] of char

address     size       variable name                            type
0x0000459e  0x16                                                array[22] of char

address     size       variable name                            type
0x00004573  0x16                                                array[22] of char

address     size       variable name                            type
0x00000000  0xb                                                 array[11] of char

address     size       variable name                            type
0x00003194  0xe                                                 array[14] of char

address     size       variable name                            type
0x000046ee  0xa                                                 array[10] of char

address     size       variable name                            type
0x00004622  0xf                                                 array[15] of char

address     size       variable name                            type
0x00004636  0x2b                                                array[43] of char

address     size       variable name                            type
0x000046e2  0xc                                                 array[12] of char

address     size       variable name                            type
0x00002a4c  0xe                                                 array[14] of char

address     size       variable name                            type
0x000044fd  0x76                                                array[118] of char

address     size       variable name                            type
0x00000000  0x2b                                                array[43] of char

address     size       variable name                            type
0x00000000  0x13                                                array[19] of char

address     size       variable name                            type
0x00000000  0x15                                                array[21] of char

address     size       variable name                            type
0x00000000  0x6                                                 array[6] of char

address     size       variable name                            type
0x00003830  0x1b                                                array[27] of char

address     size       variable name                            type
0x0000299c  0x12                                                array[18] of char

address     size       variable name                            type
0x000046d4  0xe                                                 array[14] of char

address     size       variable name                            type
0x00000000  0x14                                                array[20] of char

address     size       variable name                            type
0x00004661  0x1b                                                array[27] of char

address     size       variable name                            type
0x00000000  0x18                                                array[24] of char

address     size       variable name                            type
0x00000000  0x13                                                array[19] of char

address     size       variable name                            type
0x0000467c  0x58                                                array[88] of char

address     size       variable name                            type
0x00004608  0x1a                                                array[26] of char

address     size       variable name                            type
0x20000c9c  0x50       xQueueRegistry                           array[10] of QueueRegistryItem_t

address     size       variable name                            type
0x000044f6  0x7                                                 array[7] of char

address     size       variable name                            type
0x00000000  0x19                                                array[25] of char

address     size       variable name                            type
0x00000000  0x22                                                array[34] of char

address     size       variable name                            type
0x0000440e  0x48                                                array[72] of char

address     size       variable name                            type
0x00004371  0x50                                                array[80] of char

address     size       variable name                            type
0x00004478  0xc                                                 array[12] of char

address     size       variable name                            type
0x00004284  0x4d                                                array[77] of char

address     size       variable name                            type
0x00004484  0x19                                                array[25] of char

address     size       variable name                            type
0x00004456  0x22                                                array[34] of char

address     size       variable name                            type
0x000042d1  0x53                                                array[83] of char

address     size       variable name                            type
0x00004324  0x4d                                                array[77] of char

address     size       variable name                            type
0x000043c1  0x4d                                                array[77] of char

address     size       variable name                            type
0x00002ad4  0x8                                                 array[8] of char

address     size       variable name                            type
0x00000000  0xf                                                 array[15] of char

address     size       variable name                            type
0x00002b68  0xb                                                 array[11] of char

address     size       variable name                            type
0x00002b4c  0x1b                                                array[27] of char

address     size       variable name                            type
0x00002b74  0xe                                                 array[14] of char

address     size       variable name                            type
0x00002c2c  0x24                                                array[36] of char

address     size       variable name                            type
0x0000449d  0x58                                                array[88] of char

address     size       variable name                            type
0x000044f5  0x8                                                 array[8] of char

address     size       variable name                            type
0x00001c14  0x6                                                 array[6] of char

address     size       variable name                            type
0x20000564  0x4        g_uart7_rx_complete                      volatile int

address     size       variable name                            type
0x20000568  0x4        g_uart7_tx_complete                      volatile int

address     size       variable name                            type
0x000038c8  0x10       OLED_F8x16                               array[16] of const uint8_t

address     size       variable name                            type
0x20000440  0x1        gI2C2RxCplt                              volatile _Bool

address     size       variable name                            type
0x20000441  0x1        gI2C2TxCplt                              volatile _Bool

